

Microchip MPLAB XC8 Assembler V2.45 build 20230818022343 
                                                                                               Tue Dec 19 00:46:47 2023

Microchip MPLAB XC8 C Compiler v2.45 (Free license) build 20230818022343 Og1 
     1                           	processor	16F877A
     2                           	pagewidth 120
     3                           	opt	flic
     4                           	psect	strings,global,class=STRING,delta=2,noexec
     5                           	psect	cinit,global,class=CODE,merge=1,delta=2
     6                           	psect	bssBANK0,global,class=BANK0,space=1,delta=1,noexec
     7                           	psect	bssBANK3,global,class=BANK3,space=1,delta=1,noexec
     8                           	psect	clrtext,global,class=CODE,delta=2
     9                           	psect	cstackBANK1,global,class=BANK1,space=1,delta=1,noexec
    10                           	psect	cstackCOMMON,global,class=COMMON,space=1,delta=1,noexec
    11                           	psect	cstackBANK0,global,class=BANK0,space=1,delta=1,noexec
    12                           	psect	maintext,global,class=CODE,split=1,delta=2
    13                           	psect	text1,local,class=CODE,merge=1,delta=2,group=3
    14                           	psect	text2,local,class=CODE,merge=1,delta=2,group=1
    15                           	psect	text3,local,class=CODE,merge=1,delta=2,group=1
    16                           	psect	text4,local,class=CODE,merge=1,delta=2,group=1
    17                           	psect	text5,local,class=CODE,merge=1,delta=2,group=2
    18                           	psect	text6,local,class=CODE,merge=1,delta=2,group=1
    19                           	psect	text7,local,class=CODE,merge=1,delta=2,group=3
    20                           	psect	text8,local,class=CODE,merge=1,delta=2,group=1
    21                           	psect	text9,local,class=CODE,merge=1,delta=2,group=3
    22                           	psect	text10,local,class=CODE,merge=1,delta=2,group=3
    23                           	psect	text11,local,class=CODE,merge=1,delta=2,group=3
    24                           	psect	text12,local,class=CODE,merge=1,delta=2,group=3
    25                           	psect	text13,local,class=CODE,merge=1,delta=2,group=3
    26                           	psect	text14,local,class=CODE,merge=1,delta=2,group=3
    27                           	psect	text15,local,class=CODE,merge=1,delta=2,group=3
    28                           	psect	text16,local,class=CODE,merge=1,delta=2,group=2
    29                           	psect	text17,local,class=CODE,merge=1,delta=2,group=2
    30                           	psect	text18,local,class=CODE,merge=1,delta=2,group=2
    31                           	psect	text19,local,class=CODE,merge=1,delta=2,group=2
    32                           	psect	text20,local,class=CODE,merge=1,delta=2,group=2
    33                           	psect	text21,local,class=CODE,merge=1,delta=2,group=2
    34                           	psect	text22,local,class=CODE,merge=1,delta=2,group=2
    35                           	psect	text23,local,class=CODE,merge=1,delta=2,group=2
    36                           	psect	text24,local,class=CODE,merge=1,delta=2,group=2
    37                           	psect	text25,local,class=CODE,merge=1,delta=2,group=2
    38                           	psect	text26,local,class=CODE,merge=1,delta=2
    39                           	psect	text27,local,class=CODE,merge=1,delta=2
    40                           	psect	text28,local,class=CODE,merge=1,delta=2
    41                           	psect	text29,local,class=CODE,merge=1,delta=2
    42                           	psect	text30,local,class=CODE,merge=1,delta=2
    43                           	psect	text31,local,class=CODE,merge=1,delta=2
    44                           	psect	config,global,abs,ovrld,class=CONFIG,space=4,delta=2,noexec
    45                           	psect	text6_split_1,local,class=CODE,merge=1,delta=2
    46                           	dabs	1,0x7E,2
    47     0000                     
    48                           ; Generated 22/03/2023 GMT
    49                           ; 
    50                           ; Copyright © 2023, Microchip Technology Inc. and its subsidiaries ("Microchip")
    51                           ; All rights reserved.
    52                           ; 
    53                           ; This software is developed by Microchip Technology Inc. and its subsidiaries ("Microch
      +                          ip").
    54                           ; 
    55                           ; Redistribution and use in source and binary forms, with or without modification, are
    56                           ; permitted provided that the following conditions are met:
    57                           ; 
    58                           ;     1. Redistributions of source code must retain the above copyright notice, this lis
      +                          t of
    59                           ;        conditions and the following disclaimer.
    60                           ; 
    61                           ;     2. Redistributions in binary form must reproduce the above copyright notice, this 
      +                          list
    62                           ;        of conditions and the following disclaimer in the documentation and/or other
    63                           ;        materials provided with the distribution. Publication is not required when
    64                           ;        this file is used in an embedded application.
    65                           ; 
    66                           ;     3. Microchip's name may not be used to endorse or promote products derived from th
      +                          is
    67                           ;        software without specific prior written permission.
    68                           ; 
    69                           ; THIS SOFTWARE IS PROVIDED BY MICROCHIP "AS IS" AND ANY EXPRESS OR IMPLIED WARRANTIES,
    70                           ; INCLUDING, BUT NOT LIMITED TO, THE IMPLIED WARRANTIES OF MERCHANTABILITY AND FITNESS F
      +                          OR
    71                           ; PURPOSE ARE DISCLAIMED.  IN NO EVENT SHALL MICROCHIP BE LIABLE FOR ANY DIRECT, INDIREC
      +                          T,
    72                           ; INCIDENTAL, SPECIAL, EXEMPLARY, OR CONSEQUENTIAL DAMAGES (INCLUDING BUT NOT LIMITED TO
    73                           ; PROCUREMENT OF SUBSTITUTE GOODS OR SERVICES; LOSS OF USE, DATA OR PROFITS; OR BUSINESS
    74                           ; INTERRUPTION) HOWSOEVER CAUSED AND ON ANY THEORY OF LIABILITY, WHETHER IN CONTRACT, ST
      +                          RICT
    75                           ; LIABILITY, OR TORT (INCLUDING NEGLIGENCE OR OTHERWISE) ARISING IN ANY WAY OUT OF THE U
      +                          SE OF
    76                           ; THIS SOFTWARE, EVEN IF ADVISED OF THE POSSIBILITY OF SUCH DAMAGE.
    77                           ; 
    78                           ; 
    79                           ; Code-generator required, PIC16F877A Definitions
    80                           ; 
    81                           ; SFR Addresses
    82     0000                     	;# 
    83     0001                     	;# 
    84     0002                     	;# 
    85     0003                     	;# 
    86     0004                     	;# 
    87     0005                     	;# 
    88     0006                     	;# 
    89     0007                     	;# 
    90     0008                     	;# 
    91     0009                     	;# 
    92     000A                     	;# 
    93     000B                     	;# 
    94     000C                     	;# 
    95     000D                     	;# 
    96     000E                     	;# 
    97     000E                     	;# 
    98     000F                     	;# 
    99     0010                     	;# 
   100     0011                     	;# 
   101     0012                     	;# 
   102     0013                     	;# 
   103     0014                     	;# 
   104     0015                     	;# 
   105     0015                     	;# 
   106     0016                     	;# 
   107     0017                     	;# 
   108     0018                     	;# 
   109     0019                     	;# 
   110     001A                     	;# 
   111     001B                     	;# 
   112     001B                     	;# 
   113     001C                     	;# 
   114     001D                     	;# 
   115     001E                     	;# 
   116     001F                     	;# 
   117     0081                     	;# 
   118     0085                     	;# 
   119     0086                     	;# 
   120     0087                     	;# 
   121     0088                     	;# 
   122     0089                     	;# 
   123     008C                     	;# 
   124     008D                     	;# 
   125     008E                     	;# 
   126     0091                     	;# 
   127     0092                     	;# 
   128     0093                     	;# 
   129     0094                     	;# 
   130     0098                     	;# 
   131     0099                     	;# 
   132     009C                     	;# 
   133     009D                     	;# 
   134     009E                     	;# 
   135     009F                     	;# 
   136     010C                     	;# 
   137     010D                     	;# 
   138     010E                     	;# 
   139     010F                     	;# 
   140     018C                     	;# 
   141     018D                     	;# 
   142     0000                     	;# 
   143     0001                     	;# 
   144     0002                     	;# 
   145     0003                     	;# 
   146     0004                     	;# 
   147     0005                     	;# 
   148     0006                     	;# 
   149     0007                     	;# 
   150     0008                     	;# 
   151     0009                     	;# 
   152     000A                     	;# 
   153     000B                     	;# 
   154     000C                     	;# 
   155     000D                     	;# 
   156     000E                     	;# 
   157     000E                     	;# 
   158     000F                     	;# 
   159     0010                     	;# 
   160     0011                     	;# 
   161     0012                     	;# 
   162     0013                     	;# 
   163     0014                     	;# 
   164     0015                     	;# 
   165     0015                     	;# 
   166     0016                     	;# 
   167     0017                     	;# 
   168     0018                     	;# 
   169     0019                     	;# 
   170     001A                     	;# 
   171     001B                     	;# 
   172     001B                     	;# 
   173     001C                     	;# 
   174     001D                     	;# 
   175     001E                     	;# 
   176     001F                     	;# 
   177     0081                     	;# 
   178     0085                     	;# 
   179     0086                     	;# 
   180     0087                     	;# 
   181     0088                     	;# 
   182     0089                     	;# 
   183     008C                     	;# 
   184     008D                     	;# 
   185     008E                     	;# 
   186     0091                     	;# 
   187     0092                     	;# 
   188     0093                     	;# 
   189     0094                     	;# 
   190     0098                     	;# 
   191     0099                     	;# 
   192     009C                     	;# 
   193     009D                     	;# 
   194     009E                     	;# 
   195     009F                     	;# 
   196     010C                     	;# 
   197     010D                     	;# 
   198     010E                     	;# 
   199     010F                     	;# 
   200     018C                     	;# 
   201     018D                     	;# 
   202     001E                     _ADRESH	set	30
   203     001F                     _ADCON0bits	set	31
   204     001F                     _ADCON0	set	31
   205     0006                     _PORTBbits	set	6
   206     0006                     _PORTB	set	6
   207     00FA                     _GO_DONE	set	250
   208     0086                     _TRISB	set	134
   209     009E                     _ADRESL	set	158
   210     009F                     _ADCON1	set	159
   211                           
   212                           	psect	strings
   213     1000                     __pstrings:
   214     1000                     stringtab:
   215     1000                     __stringtab:
   216                           
   217                           ;	String table - string pointers are 1 byte each
   218     1000  1BFF               	btfsc	btemp+1,7
   219     1001  280A               	ljmp	stringcode
   220     1002  1383               	bcf	3,7
   221     1003  187F               	btfsc	btemp+1,0
   222     1004  1783               	bsf	3,7
   223     1005  0800               	movf	0,w
   224     1006  0A84               	incf	4,f
   225     1007  1903               	skipnz
   226     1008  0AFF               	incf	btemp+1,f
   227     1009  0008               	return
   228     100A                     stringcode:
   229     100A                     stringdir:
   230     100A  3010               	movlw	high stringdir
   231     100B  008A               	movwf	10
   232     100C  0804               	movf	4,w
   233     100D  0A84               	incf	4,f
   234     100E  0782               	addwf	2,f
   235     100F                     __stringbase:
   236     100F  3400               	retlw	0
   237     1010                     __end_of__stringtab:
   238     1010                     STR_1:
   239     1010  344E               	retlw	78	;'N'
   240     1011  3468               	retlw	104	;'h'
   241     1012  3469               	retlw	105	;'i'
   242     1013  3465               	retlw	101	;'e'
   243     1014  3474               	retlw	116	;'t'
   244     1015  3420               	retlw	32	;' '
   245     1016  3464               	retlw	100	;'d'
   246     1017  346F               	retlw	111	;'o'
   247     1018  3400               	retlw	0
   248     1019                     STR_2:
   249     1019  3420               	retlw	32	;' '
   250     101A  3425               	retlw	37	;'%'
   251     101B  342E               	retlw	46	;'.'
   252     101C  3432               	retlw	50	;'2'
   253     101D  3466               	retlw	102	;'f'
   254     101E  3400               	retlw	0
   255     101F                     STR_3:
   256     101F  3469               	retlw	105	;'i'
   257     1020  346E               	retlw	110	;'n'
   258     1021  3466               	retlw	102	;'f'
   259     1022  3400               	retlw	0
   260     1023                     STR_6:
   261     1023  346E               	retlw	110	;'n'
   262     1024  3461               	retlw	97	;'a'
   263     1025  346E               	retlw	110	;'n'
   264     1026  3400               	retlw	0
   265     101F                     
   266                           	psect	cinit
   267     07EC                     start_initialization:	
   268                           ; #config settings
   269                           
   270     07EC                     __initialization:
   271                           
   272                           ; Clear objects allocated to BANK0
   273     07EC  1283               	bcf	3,5	;RP0=0, select bank0
   274     07ED  1303               	bcf	3,6	;RP1=0, select bank0
   275     07EE  01E8               	clrf	__pbssBANK0& (0+127)
   276     07EF  01E9               	clrf	(__pbssBANK0+1)& (0+127)
   277     07F0  01EA               	clrf	(__pbssBANK0+2)& (0+127)
   278     07F1  01EB               	clrf	(__pbssBANK0+3)& (0+127)
   279     07F2  01EC               	clrf	(__pbssBANK0+4)& (0+127)
   280                           
   281                           ; Clear objects allocated to BANK3
   282     07F3  1783               	bsf	3,7	;select IRP bank2
   283     07F4  3090               	movlw	low __pbssBANK3
   284     07F5  0084               	movwf	4
   285     07F6  30E8               	movlw	low (__pbssBANK3+88)
   286     07F7  160A  158A  2788  120A  118A  	fcall	clear_ram0
   287     07FC                     end_of_initialization:	
   288                           ;End of C runtime variable initialization code
   289                           
   290     07FC                     __end_of__initialization:
   291     07FC  0183               	clrf	3
   292     07FD  160A  118A  2C0B   	ljmp	_main	;jump to C main() function
   293                           
   294                           	psect	bssBANK0
   295     0068                     __pbssBANK0:
   296     0068                     _width:
   297     0068                     	ds	2
   298     006A                     _prec:
   299     006A                     	ds	2
   300     006C                     _flags:
   301     006C                     	ds	1
   302                           
   303                           	psect	bssBANK3
   304     0190                     __pbssBANK3:
   305     0190                     floorf@F521:
   306     0190                     	ds	4
   307     0194                     ___fpclassifyf@F465:
   308     0194                     	ds	4
   309     0198                     _dbuf:
   310     0198                     	ds	80
   311                           
   312                           	psect	clrtext
   313     1F88                     clear_ram0:	
   314                           ;	Called with FSR containing the base address, and
   315                           ;	W with the last address+1
   316                           
   317     1F88  0064               	clrwdt	;clear the watchdog before getting into this loop
   318     1F89                     clrloop0:
   319     1F89  0180               	clrf	0	;clear RAM location pointed to by FSR
   320     1F8A  0A84               	incf	4,f	;increment pointer
   321     1F8B  0604               	xorwf	4,w	;XOR with final address
   322     1F8C  1903               	btfsc	3,2	;have we reached the end yet?
   323     1F8D  3400               	retlw	0	;all done for this memory range, return
   324     1F8E  0604               	xorwf	4,w	;XOR again to restore value
   325     1F8F  2F89               	goto	clrloop0	;do the next byte
   326                           
   327                           	psect	cstackBANK1
   328     00A0                     __pcstackBANK1:
   329     00A0                     efgtoa@ne:
   330                           
   331                           ; 2 bytes @ 0x0
   332     00A0                     	ds	2
   333     00A2                     efgtoa@p:
   334                           
   335                           ; 2 bytes @ 0x2
   336     00A2                     	ds	2
   337     00A4                     efgtoa@t:
   338                           
   339                           ; 2 bytes @ 0x4
   340     00A4                     	ds	2
   341     00A6                     _efgtoa$712:
   342                           
   343                           ; 2 bytes @ 0x6
   344     00A6                     	ds	2
   345     00A8                     efgtoa@pp:
   346                           
   347                           ; 1 bytes @ 0x8
   348     00A8                     	ds	1
   349     00A9                     efgtoa@mode:
   350                           
   351                           ; 1 bytes @ 0x9
   352     00A9                     	ds	1
   353     00AA                     efgtoa@nmode:
   354                           
   355                           ; 1 bytes @ 0xA
   356     00AA                     	ds	1
   357     00AB                     efgtoa@d:
   358                           
   359                           ; 2 bytes @ 0xB
   360     00AB                     	ds	2
   361     00AD                     efgtoa@m:
   362                           
   363                           ; 2 bytes @ 0xD
   364     00AD                     	ds	2
   365     00AF                     efgtoa@fp:
   366                           
   367                           ; 1 bytes @ 0xF
   368     00AF                     	ds	1
   369     00B0                     efgtoa@e:
   370                           
   371                           ; 2 bytes @ 0x10
   372     00B0                     	ds	2
   373     00B2                     efgtoa@w:
   374                           
   375                           ; 2 bytes @ 0x12
   376     00B2                     	ds	2
   377     00B4                     efgtoa@ou:
   378                           
   379                           ; 4 bytes @ 0x14
   380     00B4                     	ds	4
   381     00B8                     efgtoa@i:
   382                           
   383                           ; 2 bytes @ 0x18
   384     00B8                     	ds	2
   385     00BA                     efgtoa@h:
   386                           
   387                           ; 4 bytes @ 0x1A
   388     00BA                     	ds	4
   389     00BE                     efgtoa@l:
   390                           
   391                           ; 4 bytes @ 0x1E
   392     00BE                     	ds	4
   393     00C2                     efgtoa@sign:
   394                           
   395                           ; 1 bytes @ 0x22
   396     00C2                     	ds	1
   397     00C3                     efgtoa@n:
   398                           
   399                           ; 2 bytes @ 0x23
   400     00C3                     	ds	2
   401     00C5                     efgtoa@g:
   402                           
   403                           ; 4 bytes @ 0x25
   404     00C5                     	ds	4
   405     00C9                     efgtoa@u:
   406                           
   407                           ; 4 bytes @ 0x29
   408     00C9                     	ds	4
   409     00CD                     ?_vfpfcnvrt:
   410     00CD                     vfpfcnvrt@fmt:	
   411                           ; 1 bytes @ 0x2D
   412                           
   413                           
   414                           ; 1 bytes @ 0x2D
   415     00CD                     	ds	1
   416     00CE                     vfpfcnvrt@ap:
   417                           
   418                           ; 1 bytes @ 0x2E
   419     00CE                     	ds	1
   420     00CF                     ?_vfprintf:
   421     00CF                     vfprintf@fmt:	
   422                           ; 2 bytes @ 0x2F
   423                           
   424                           
   425                           ; 1 bytes @ 0x2F
   426     00CF                     	ds	1
   427     00D0                     vfprintf@ap:
   428                           
   429                           ; 1 bytes @ 0x30
   430     00D0                     	ds	1
   431     00D1                     ?_sprintf:
   432     00D1                     sprintf@fmt:	
   433                           ; 2 bytes @ 0x31
   434                           
   435                           
   436                           ; 1 bytes @ 0x31
   437     00D1                     	ds	5
   438     00D6                     main@Temp:
   439                           
   440                           ; 16 bytes @ 0x36
   441     00D6                     	ds	16
   442     00E6                     main@Nhietdo:
   443                           
   444                           ; 4 bytes @ 0x46
   445     00E6                     	ds	4
   446     00EA                     main@Vol:
   447                           
   448                           ; 4 bytes @ 0x4A
   449     00EA                     	ds	4
   450     00EE                     main@ADC:
   451                           
   452                           ; 2 bytes @ 0x4E
   453     00EE                     	ds	2
   454                           
   455                           	psect	cstackCOMMON
   456     0070                     __pcstackCOMMON:
   457     0070                     ?___fleq:
   458     0070                     ?_strcpy:	
   459                           ; 1 bit 
   460                           
   461     0070                     ?_memcpy:	
   462                           ; 1 bytes @ 0x0
   463                           
   464     0070                     ?_putch:	
   465                           ; 1 bytes @ 0x0
   466                           
   467     0070                     ??_putch:	
   468                           ; 1 bytes @ 0x0
   469                           
   470     0070                     ?_LCD_Cmd:	
   471                           ; 1 bytes @ 0x0
   472                           
   473     0070                     ??_LCD_Cmd:	
   474                           ; 1 bytes @ 0x0
   475                           
   476     0070                     ?_LCD_Data:	
   477                           ; 1 bytes @ 0x0
   478                           
   479     0070                     ??_LCD_Data:	
   480                           ; 1 bytes @ 0x0
   481                           
   482     0070                     ?_LCD_Init:	
   483                           ; 1 bytes @ 0x0
   484                           
   485     0070                     ?_ADC_Init:	
   486                           ; 1 bytes @ 0x0
   487                           
   488     0070                     ??_ADC_Init:	
   489                           ; 1 bytes @ 0x0
   490                           
   491     0070                     ?_main:	
   492                           ; 1 bytes @ 0x0
   493                           
   494     0070                     ?__Umul8_16:	
   495                           ; 1 bytes @ 0x0
   496                           
   497     0070                     ?_fputc:	
   498                           ; 2 bytes @ 0x0
   499                           
   500     0070                     ?___fpclassifyf:	
   501                           ; 2 bytes @ 0x0
   502                           
   503     0070                     ?_ADC_Read:	
   504                           ; 2 bytes @ 0x0
   505                           
   506     0070                     ?___wmul:	
   507                           ; 2 bytes @ 0x0
   508                           
   509     0070                     ?_labs:	
   510                           ; 2 bytes @ 0x0
   511                           
   512     0070                     ?___flneg:	
   513                           ; 4 bytes @ 0x0
   514                           
   515     0070                     ?___fltol:	
   516                           ; 4 bytes @ 0x0
   517                           
   518     0070                     ?___fladd:	
   519                           ; 4 bytes @ 0x0
   520                           
   521     0070                     ?___fldiv:	
   522                           ; 4 bytes @ 0x0
   523                           
   524     0070                     ?___xxtofl:	
   525                           ; 4 bytes @ 0x0
   526                           
   527     0070                     __Umul8_16@multiplicand:	
   528                           ; 4 bytes @ 0x0
   529                           
   530     0070                     memcpy@s1:	
   531                           ; 1 bytes @ 0x0
   532                           
   533     0070                     putch@c:	
   534                           ; 1 bytes @ 0x0
   535                           
   536     0070                     strcpy@src:	
   537                           ; 1 bytes @ 0x0
   538                           
   539     0070                     ___wmul@multiplier:	
   540                           ; 1 bytes @ 0x0
   541                           
   542     0070                     fputc@c:	
   543                           ; 2 bytes @ 0x0
   544                           
   545     0070                     ___fleq@ff1:	
   546                           ; 2 bytes @ 0x0
   547                           
   548     0070                     ___flneg@f1:	
   549                           ; 4 bytes @ 0x0
   550                           
   551     0070                     ___fltol@f1:	
   552                           ; 4 bytes @ 0x0
   553                           
   554     0070                     ___fladd@b:	
   555                           ; 4 bytes @ 0x0
   556                           
   557     0070                     ___fldiv@a:	
   558                           ; 4 bytes @ 0x0
   559                           
   560     0070                     ___xxtofl@val:	
   561                           ; 4 bytes @ 0x0
   562                           
   563     0070                     ___fpclassifyf@x:	
   564                           ; 4 bytes @ 0x0
   565                           
   566     0070                     labs@a:	
   567                           ; 4 bytes @ 0x0
   568                           
   569                           
   570                           ; 4 bytes @ 0x0
   571     0070                     	ds	1
   572     0071                     ??_strcpy:
   573     0071                     strcpy@d:	
   574                           ; 1 bytes @ 0x1
   575                           
   576     0071                     memcpy@n:	
   577                           ; 1 bytes @ 0x1
   578                           
   579                           
   580                           ; 2 bytes @ 0x1
   581     0071                     	ds	1
   582     0072                     ??__Umul8_16:
   583     0072                     ??_ADC_Read:	
   584                           ; 1 bytes @ 0x2
   585                           
   586     0072                     LCD_Cmd@data:	
   587                           ; 1 bytes @ 0x2
   588                           
   589     0072                     LCD_Data@data:	
   590                           ; 1 bytes @ 0x2
   591                           
   592     0072                     fputc@fp:	
   593                           ; 1 bytes @ 0x2
   594                           
   595     0072                     strcpy@dest:	
   596                           ; 1 bytes @ 0x2
   597                           
   598     0072                     ___wmul@multiplicand:	
   599                           ; 1 bytes @ 0x2
   600                           
   601                           
   602                           ; 2 bytes @ 0x2
   603     0072                     	ds	1
   604     0073                     ??_fputc:
   605     0073                     ??_memcpy:	
   606                           ; 1 bytes @ 0x3
   607                           
   608     0073                     ??_LCD_Init:	
   609                           ; 1 bytes @ 0x3
   610                           
   611     0073                     ?_LCD_String:	
   612                           ; 1 bytes @ 0x3
   613                           
   614     0073                     ADC_Read@ANC:	
   615                           ; 1 bytes @ 0x3
   616                           
   617     0073                     memcpy@tmp:	
   618                           ; 1 bytes @ 0x3
   619                           
   620     0073                     LCD_String@str:	
   621                           ; 1 bytes @ 0x3
   622                           
   623                           
   624                           ; 2 bytes @ 0x3
   625     0073                     	ds	1
   626     0074                     ??___fpclassifyf:
   627     0074                     ??_labs:	
   628                           ; 1 bytes @ 0x4
   629                           
   630     0074                     ??___wmul:	
   631                           ; 1 bytes @ 0x4
   632                           
   633     0074                     ??___flneg:	
   634                           ; 1 bytes @ 0x4
   635                           
   636     0074                     ??___fltol:	
   637                           ; 1 bytes @ 0x4
   638                           
   639     0074                     ??___xxtofl:	
   640                           ; 1 bytes @ 0x4
   641                           
   642     0074                     memcpy@d1:	
   643                           ; 1 bytes @ 0x4
   644                           
   645     0074                     ___wmul@product:	
   646                           ; 1 bytes @ 0x4
   647                           
   648     0074                     __Umul8_16@product:	
   649                           ; 2 bytes @ 0x4
   650                           
   651     0074                     ___fleq@ff2:	
   652                           ; 2 bytes @ 0x4
   653                           
   654     0074                     ___fladd@a:	
   655                           ; 4 bytes @ 0x4
   656                           
   657     0074                     ___fldiv@b:	
   658                           ; 4 bytes @ 0x4
   659                           
   660                           
   661                           ; 4 bytes @ 0x4
   662     0074                     	ds	1
   663     0075                     ??_LCD_String:
   664     0075                     LCD_String@i:	
   665                           ; 1 bytes @ 0x5
   666                           
   667     0075                     memcpy@d:	
   668                           ; 1 bytes @ 0x5
   669                           
   670                           
   671                           ; 1 bytes @ 0x5
   672     0075                     	ds	1
   673     0076                     ?_read_prec_or_width:
   674     0076                     read_prec_or_width@ap:	
   675                           ; 2 bytes @ 0x6
   676                           
   677     0076                     memcpy@s:	
   678                           ; 1 bytes @ 0x6
   679                           
   680     0076                     __Umul8_16@word_mpld:	
   681                           ; 1 bytes @ 0x6
   682                           
   683                           
   684                           ; 2 bytes @ 0x6
   685     0076                     	ds	2
   686     0078                     ??___fleq:
   687     0078                     ??___fldiv:	
   688                           ; 1 bytes @ 0x8
   689                           
   690     0078                     ??_read_prec_or_width:	
   691                           ; 1 bytes @ 0x8
   692                           
   693     0078                     ?_fputs:	
   694                           ; 1 bytes @ 0x8
   695                           
   696     0078                     ___fltol@sign1:	
   697                           ; 2 bytes @ 0x8
   698                           
   699     0078                     ___fladd@signs:	
   700                           ; 1 bytes @ 0x8
   701                           
   702     0078                     __Umul8_16@multiplier:	
   703                           ; 1 bytes @ 0x8
   704                           
   705     0078                     ___xxtofl@sign:	
   706                           ; 1 bytes @ 0x8
   707                           
   708     0078                     read_prec_or_width@c:	
   709                           ; 1 bytes @ 0x8
   710                           
   711     0078                     fputs@fp:	
   712                           ; 1 bytes @ 0x8
   713                           
   714                           
   715                           ; 1 bytes @ 0x8
   716     0078                     	ds	1
   717     0079                     ??_fputs:
   718     0079                     ___fltol@exp1:	
   719                           ; 1 bytes @ 0x9
   720                           
   721     0079                     ___fladd@aexp:	
   722                           ; 1 bytes @ 0x9
   723                           
   724     0079                     ___xxtofl@exp:	
   725                           ; 1 bytes @ 0x9
   726                           
   727     0079                     read_prec_or_width@n:	
   728                           ; 1 bytes @ 0x9
   729                           
   730                           
   731                           ; 2 bytes @ 0x9
   732     0079                     	ds	1
   733     007A                     ___fladd@bexp:
   734     007A                     ___xxtofl@arg:	
   735                           ; 1 bytes @ 0xA
   736                           
   737                           
   738                           ; 4 bytes @ 0xA
   739     007A                     	ds	1
   740     007B                     ?_pad:
   741     007B                     ___fladd@grs:	
   742                           ; 1 bytes @ 0xB
   743                           
   744     007B                     pad@buf:	
   745                           ; 1 bytes @ 0xB
   746                           
   747     007B                     read_prec_or_width@fmt:	
   748                           ; 1 bytes @ 0xB
   749                           
   750                           
   751                           ; 1 bytes @ 0xB
   752     007B                     	ds	1
   753     007C                     pad@p:
   754                           
   755                           ; 2 bytes @ 0xC
   756     007C                     	ds	2
   757     007E                     ??_vfprintf:
   758     007E                     ??_main:	
   759                           ; 1 bytes @ 0xE
   760                           
   761     007E                     ??___flsub:	
   762                           ; 1 bytes @ 0xE
   763                           
   764                           
   765                           	psect	cstackBANK0
   766     0020                     __pcstackBANK0:	
   767                           ; 1 bytes @ 0xE
   768                           
   769     0020                     ??___fladd:
   770     0020                     ?___flmul:	
   771                           ; 1 bytes @ 0x0
   772                           
   773     0020                     fputs@c:	
   774                           ; 4 bytes @ 0x0
   775                           
   776     0020                     ___fpclassifyf@e:	
   777                           ; 1 bytes @ 0x0
   778                           
   779     0020                     ___fldiv@rem:	
   780                           ; 2 bytes @ 0x0
   781                           
   782     0020                     ___flmul@b:	
   783                           ; 4 bytes @ 0x0
   784                           
   785                           
   786                           ; 4 bytes @ 0x0
   787     0020                     	ds	1
   788     0021                     fputs@i:
   789                           
   790                           ; 2 bytes @ 0x1
   791     0021                     	ds	1
   792     0022                     ___fpclassifyf@u:
   793                           
   794                           ; 4 bytes @ 0x2
   795     0022                     	ds	1
   796     0023                     fputs@s:
   797                           
   798                           ; 1 bytes @ 0x3
   799     0023                     	ds	1
   800     0024                     ??_pad:
   801     0024                     ___fldiv@sign:	
   802                           ; 1 bytes @ 0x4
   803                           
   804     0024                     ___flmul@a:	
   805                           ; 1 bytes @ 0x4
   806                           
   807                           
   808                           ; 4 bytes @ 0x4
   809     0024                     	ds	1
   810     0025                     ___fldiv@new_exp:
   811     0025                     pad@i:	
   812                           ; 2 bytes @ 0x5
   813                           
   814                           
   815                           ; 2 bytes @ 0x5
   816     0025                     	ds	2
   817     0027                     pad@fp:
   818     0027                     ___fldiv@grs:	
   819                           ; 1 bytes @ 0x7
   820                           
   821                           
   822                           ; 4 bytes @ 0x7
   823     0027                     	ds	1
   824     0028                     ??___flmul:
   825                           
   826                           ; 1 bytes @ 0x8
   827     0028                     	ds	3
   828     002B                     ___fldiv@bexp:
   829                           
   830                           ; 1 bytes @ 0xB
   831     002B                     	ds	1
   832     002C                     ___fldiv@aexp:
   833                           
   834                           ; 1 bytes @ 0xC
   835     002C                     	ds	1
   836     002D                     ?_floorf:
   837     002D                     ___flmul@sign:	
   838                           ; 4 bytes @ 0xD
   839                           
   840     002D                     floorf@x:	
   841                           ; 1 bytes @ 0xD
   842                           
   843                           
   844                           ; 4 bytes @ 0xD
   845     002D                     	ds	1
   846     002E                     ___flmul@grs:
   847                           
   848                           ; 4 bytes @ 0xE
   849     002E                     	ds	3
   850     0031                     ??_floorf:
   851                           
   852                           ; 1 bytes @ 0x11
   853     0031                     	ds	1
   854     0032                     ___flmul@aexp:
   855                           
   856                           ; 1 bytes @ 0x12
   857     0032                     	ds	1
   858     0033                     ___flmul@bexp:
   859                           
   860                           ; 1 bytes @ 0x13
   861     0033                     	ds	1
   862     0034                     ___flmul@prod:
   863                           
   864                           ; 4 bytes @ 0x14
   865     0034                     	ds	3
   866     0037                     floorf@m:
   867                           
   868                           ; 4 bytes @ 0x17
   869     0037                     	ds	1
   870     0038                     ___flmul@temp:
   871                           
   872                           ; 2 bytes @ 0x18
   873     0038                     	ds	2
   874     003A                     ?___flge:
   875     003A                     ?___flsub:	
   876                           ; 1 bit 
   877                           
   878     003A                     ___flge@ff1:	
   879                           ; 4 bytes @ 0x1A
   880                           
   881     003A                     ___flsub@a:	
   882                           ; 4 bytes @ 0x1A
   883                           
   884                           
   885                           ; 4 bytes @ 0x1A
   886     003A                     	ds	1
   887     003B                     floorf@e:
   888                           
   889                           ; 2 bytes @ 0x1B
   890     003B                     	ds	2
   891     003D                     floorf@u:
   892                           
   893                           ; 4 bytes @ 0x1D
   894     003D                     	ds	1
   895     003E                     ___flge@ff2:
   896     003E                     ___flsub@b:	
   897                           ; 4 bytes @ 0x1E
   898                           
   899                           
   900                           ; 4 bytes @ 0x1E
   901     003E                     	ds	4
   902     0042                     ??___flge:
   903                           
   904                           ; 1 bytes @ 0x22
   905     0042                     	ds	4
   906     0046                     ?_efgtoa:
   907     0046                     efgtoa@f:	
   908                           ; 1 bytes @ 0x26
   909                           
   910                           
   911                           ; 4 bytes @ 0x26
   912     0046                     	ds	4
   913     004A                     efgtoa@c:
   914                           
   915                           ; 1 bytes @ 0x2A
   916     004A                     	ds	1
   917     004B                     ??_efgtoa:
   918                           
   919                           ; 1 bytes @ 0x2B
   920     004B                     	ds	4
   921     004F                     ??_vfpfcnvrt:
   922                           
   923                           ; 1 bytes @ 0x2F
   924     004F                     	ds	2
   925     0051                     vfpfcnvrt@convarg:
   926                           
   927                           ; 4 bytes @ 0x31
   928     0051                     	ds	4
   929     0055                     vfpfcnvrt@fp:
   930                           
   931                           ; 1 bytes @ 0x35
   932     0055                     	ds	1
   933     0056                     vfpfcnvrt@c:
   934                           
   935                           ; 1 bytes @ 0x36
   936     0056                     	ds	1
   937     0057                     vfpfcnvrt@cp:
   938                           
   939                           ; 1 bytes @ 0x37
   940     0057                     	ds	1
   941     0058                     vfprintf@fp:
   942                           
   943                           ; 1 bytes @ 0x38
   944     0058                     	ds	1
   945     0059                     vfprintf@cfmt:
   946                           
   947                           ; 1 bytes @ 0x39
   948     0059                     	ds	1
   949     005A                     ??_sprintf:
   950                           
   951                           ; 1 bytes @ 0x3A
   952     005A                     	ds	1
   953     005B                     sprintf@s:
   954                           
   955                           ; 1 bytes @ 0x3B
   956     005B                     	ds	1
   957     005C                     sprintf@ap:
   958                           
   959                           ; 1 bytes @ 0x3C
   960     005C                     	ds	1
   961     005D                     sprintf@f:
   962                           
   963                           ; 11 bytes @ 0x3D
   964     005D                     	ds	11
   965                           
   966                           	psect	maintext
   967     140B                     __pmaintext:	
   968 ;;
   969 ;;Main: autosize = 0, tempsize = 0, incstack = 0, save=0
   970 ;;
   971 ;; *************** function _main *****************
   972 ;; Defined at:
   973 ;;		line 96 in file "main.c"
   974 ;; Parameters:    Size  Location     Type
   975 ;;		None
   976 ;; Auto vars:     Size  Location     Type
   977 ;;  Temp           16   54[BANK1 ] PTR unsigned char [16]
   978 ;;  Vol             4   74[BANK1 ] float 
   979 ;;  Nhietdo         4   70[BANK1 ] float 
   980 ;;  ADC             2   78[BANK1 ] int 
   981 ;; Return value:  Size  Location     Type
   982 ;;                  1    wreg      void 
   983 ;; Registers used:
   984 ;;		wreg, fsr0l, fsr0h, status,2, status,0, btemp+1, pclath, cstack
   985 ;; Tracked objects:
   986 ;;		On entry : B00/0
   987 ;;		On exit  : 0/0
   988 ;;		Unchanged: 0/0
   989 ;; Data sizes:     COMMON   BANK0   BANK1   BANK3   BANK2
   990 ;;      Params:         0       0       0       0       0
   991 ;;      Locals:         0       0      26       0       0
   992 ;;      Temps:          0       0       0       0       0
   993 ;;      Totals:         0       0      26       0       0
   994 ;;Total ram usage:       26 bytes
   995 ;; Hardware stack levels required when called: 8
   996 ;; This function calls:
   997 ;;		_ADC_Init
   998 ;;		_ADC_Read
   999 ;;		_LCD_Cmd
  1000 ;;		_LCD_Init
  1001 ;;		_LCD_String
  1002 ;;		___fldiv
  1003 ;;		___flmul
  1004 ;;		___xxtofl
  1005 ;;		_sprintf
  1006 ;; This function is called by:
  1007 ;;		Startup code after reset
  1008 ;; This function uses a non-reentrant model
  1009 ;;
  1010                           
  1011     140B                     _main:	
  1012                           ;psect for function _main
  1013                           
  1014     140B                     l3214:	
  1015                           ;incstack = 0
  1016                           ; Regs used in _main: [wreg-fsr0h+status,2+status,0+btemp+1+pclath+cstack]
  1017                           
  1018     140B  1683               	bsf	3,5	;RP0=1, select bank1
  1019     140C  1303               	bcf	3,6	;RP1=0, select bank1
  1020     140D  0186               	clrf	6	;volatile
  1021     140E                     l3216:
  1022     140E  160A  158A  27C0  160A  118A  	fcall	_LCD_Init
  1023     1413                     l3218:
  1024     1413  160A  118A  2027  160A  118A  	fcall	_ADC_Init
  1025     1418                     l3220:
  1026     1418  3000               	movlw	0
  1027     1419  120A  118A  2005  160A  118A  	fcall	_ADC_Read
  1028     141E  0871               	movf	?_ADC_Read+1,w
  1029     141F  1683               	bsf	3,5	;RP0=1, select bank1
  1030     1420  1303               	bcf	3,6	;RP1=0, select bank1
  1031     1421  00EF               	movwf	(main@ADC+1)^(0+128)
  1032     1422  0870               	movf	?_ADC_Read,w
  1033     1423  00EE               	movwf	main@ADC^(0+128)
  1034     1424                     l3222:
  1035     1424  303B               	movlw	59
  1036     1425  1283               	bcf	3,5	;RP0=0, select bank0
  1037     1426  1303               	bcf	3,6	;RP1=0, select bank0
  1038     1427  00A3               	movwf	___flmul@b+3
  1039     1428  309F               	movlw	159
  1040     1429  00A2               	movwf	___flmul@b+2
  1041     142A  30E8               	movlw	232
  1042     142B  00A1               	movwf	___flmul@b+1
  1043     142C  3068               	movlw	104
  1044     142D  00A0               	movwf	___flmul@b
  1045     142E  1683               	bsf	3,5	;RP0=1, select bank1
  1046     142F  1303               	bcf	3,6	;RP1=0, select bank1
  1047     1430  086E               	movf	main@ADC^(0+128),w
  1048     1431  00F0               	movwf	___xxtofl@val
  1049     1432  086F               	movf	(main@ADC+1)^(0+128),w
  1050     1433  00F1               	movwf	___xxtofl@val+1
  1051     1434  3000               	movlw	0
  1052     1435  1BF1               	btfsc	___xxtofl@val+1,7
  1053     1436  30FF               	movlw	255
  1054     1437  00F2               	movwf	___xxtofl@val+2
  1055     1438  00F3               	movwf	___xxtofl@val+3
  1056     1439  3001               	movlw	1
  1057     143A  120A  118A  2035  160A  118A  	fcall	___xxtofl
  1058     143F  0873               	movf	?___xxtofl+3,w
  1059     1440  1283               	bcf	3,5	;RP0=0, select bank0
  1060     1441  1303               	bcf	3,6	;RP1=0, select bank0
  1061     1442  00A7               	movwf	___flmul@a+3
  1062     1443  0872               	movf	?___xxtofl+2,w
  1063     1444  00A6               	movwf	___flmul@a+2
  1064     1445  0871               	movf	?___xxtofl+1,w
  1065     1446  00A5               	movwf	___flmul@a+1
  1066     1447  0870               	movf	?___xxtofl,w
  1067     1448  00A4               	movwf	___flmul@a
  1068     1449  120A  158A  24BB  160A  118A  	fcall	___flmul
  1069     144E  1283               	bcf	3,5	;RP0=0, select bank0
  1070     144F  1303               	bcf	3,6	;RP1=0, select bank0
  1071     1450  0823               	movf	?___flmul+3,w
  1072     1451  1683               	bsf	3,5	;RP0=1, select bank1
  1073     1452  1303               	bcf	3,6	;RP1=0, select bank1
  1074     1453  00ED               	movwf	(main@Vol+3)^(0+128)
  1075     1454  1283               	bcf	3,5	;RP0=0, select bank0
  1076     1455  1303               	bcf	3,6	;RP1=0, select bank0
  1077     1456  0822               	movf	?___flmul+2,w
  1078     1457  1683               	bsf	3,5	;RP0=1, select bank1
  1079     1458  1303               	bcf	3,6	;RP1=0, select bank1
  1080     1459  00EC               	movwf	(main@Vol+2)^(0+128)
  1081     145A  1283               	bcf	3,5	;RP0=0, select bank0
  1082     145B  1303               	bcf	3,6	;RP1=0, select bank0
  1083     145C  0821               	movf	?___flmul+1,w
  1084     145D  1683               	bsf	3,5	;RP0=1, select bank1
  1085     145E  1303               	bcf	3,6	;RP1=0, select bank1
  1086     145F  00EB               	movwf	(main@Vol+1)^(0+128)
  1087     1460  1283               	bcf	3,5	;RP0=0, select bank0
  1088     1461  1303               	bcf	3,6	;RP1=0, select bank0
  1089     1462  0820               	movf	?___flmul,w
  1090     1463  1683               	bsf	3,5	;RP0=1, select bank1
  1091     1464  1303               	bcf	3,6	;RP1=0, select bank1
  1092     1465  00EA               	movwf	main@Vol^(0+128)
  1093     1466                     l3224:
  1094     1466  303C               	movlw	60
  1095     1467  00F3               	movwf	___fldiv@a+3
  1096     1468  3023               	movlw	35
  1097     1469  00F2               	movwf	___fldiv@a+2
  1098     146A  30D7               	movlw	215
  1099     146B  00F1               	movwf	___fldiv@a+1
  1100     146C  300A               	movlw	10
  1101     146D  00F0               	movwf	___fldiv@a
  1102     146E  086D               	movf	(main@Vol+3)^(0+128),w
  1103     146F  00F7               	movwf	___fldiv@b+3
  1104     1470  086C               	movf	(main@Vol+2)^(0+128),w
  1105     1471  00F6               	movwf	___fldiv@b+2
  1106     1472  086B               	movf	(main@Vol+1)^(0+128),w
  1107     1473  00F5               	movwf	___fldiv@b+1
  1108     1474  086A               	movf	main@Vol^(0+128),w
  1109     1475  00F4               	movwf	___fldiv@b
  1110     1476  120A  158A  2082  160A  118A  	fcall	___fldiv
  1111     147B  0873               	movf	?___fldiv+3,w
  1112     147C  1683               	bsf	3,5	;RP0=1, select bank1
  1113     147D  1303               	bcf	3,6	;RP1=0, select bank1
  1114     147E  00E9               	movwf	(main@Nhietdo+3)^(0+128)
  1115     147F  0872               	movf	?___fldiv+2,w
  1116     1480  00E8               	movwf	(main@Nhietdo+2)^(0+128)
  1117     1481  0871               	movf	?___fldiv+1,w
  1118     1482  00E7               	movwf	(main@Nhietdo+1)^(0+128)
  1119     1483  0870               	movf	?___fldiv,w
  1120     1484  00E6               	movwf	main@Nhietdo^(0+128)
  1121     1485                     l3226:
  1122     1485  3080               	movlw	128
  1123     1486  160A  118A  2146  160A  118A  	fcall	_LCD_Cmd
  1124     148B                     l3228:
  1125     148B  3001               	movlw	(low ((STR_1-__stringbase)| (0+32768)))& (0+255)
  1126     148C  00F3               	movwf	LCD_String@str
  1127     148D  3080               	movlw	128
  1128     148E  00F4               	movwf	LCD_String@str+1
  1129     148F  160A  118A  20F0  160A  118A  	fcall	_LCD_String
  1130     1494                     l3230:
  1131     1494  300A               	movlw	(low ((STR_2-__stringbase)| (0+32768)))& (0+255)
  1132     1495  1683               	bsf	3,5	;RP0=1, select bank1
  1133     1496  1303               	bcf	3,6	;RP1=0, select bank1
  1134     1497  00D1               	movwf	sprintf@fmt^(0+128)
  1135     1498  0869               	movf	(main@Nhietdo+3)^(0+128),w
  1136     1499  00D5               	movwf	((?_sprintf+3)^(0+128)+1)
  1137     149A  0868               	movf	(main@Nhietdo+2)^(0+128),w
  1138     149B  00D4               	movwf	((?_sprintf+2)^(0+128)+1)
  1139     149C  0867               	movf	(main@Nhietdo+1)^(0+128),w
  1140     149D  00D3               	movwf	((?_sprintf+1)^(0+128)+1)
  1141     149E  0866               	movf	main@Nhietdo^(0+128),w
  1142     149F  00D2               	movwf	(?_sprintf^(0+128)+1)
  1143     14A0  30D6               	movlw	(low (main@Temp| 0))& (0+255)
  1144     14A1  160A  158A  27DF  160A  118A  	fcall	_sprintf
  1145     14A6                     l3232:
  1146     14A6  30C0               	movlw	192
  1147     14A7  160A  118A  2146  160A  118A  	fcall	_LCD_Cmd
  1148     14AC                     l3234:
  1149     14AC  30D6               	movlw	(low (main@Temp| 0))& (0+255)
  1150     14AD  00F3               	movwf	LCD_String@str
  1151     14AE  3000               	movlw	0
  1152     14AF  00F4               	movwf	LCD_String@str+1
  1153     14B0  160A  118A  20F0  160A  118A  	fcall	_LCD_String
  1154     14B5  2C18               	goto	l3220
  1155     14B6  120A  118A  2800   	ljmp	start
  1156     14B9                     __end_of_main:
  1157                           
  1158                           	psect	text1
  1159     1FDF                     __ptext1:	
  1160 ;; *************** function _sprintf *****************
  1161 ;; Defined at:
  1162 ;;		line 9 in file "C:\Program Files\Microchip\xc8\v2.45\pic\sources\c99\common\nf_sprintf.c"
  1163 ;; Parameters:    Size  Location     Type
  1164 ;;  s               1    wreg     PTR unsigned char 
  1165 ;;		 -> main@Temp(16), 
  1166 ;;  fmt             1   49[BANK1 ] PTR const unsigned char 
  1167 ;;		 -> STR_2(6), 
  1168 ;; Auto vars:     Size  Location     Type
  1169 ;;  s               1   59[BANK0 ] PTR unsigned char 
  1170 ;;		 -> main@Temp(16), 
  1171 ;;  f              11   61[BANK0 ] struct _IO_FILE
  1172 ;;  ret             2    0        int 
  1173 ;;  ap              1   60[BANK0 ] PTR void [1]
  1174 ;;		 -> ?_sprintf(2), 
  1175 ;; Return value:  Size  Location     Type
  1176 ;;                  2   49[BANK1 ] int 
  1177 ;; Registers used:
  1178 ;;		wreg, fsr0l, fsr0h, status,2, status,0, btemp+1, pclath, cstack
  1179 ;; Tracked objects:
  1180 ;;		On entry : 0/0
  1181 ;;		On exit  : 0/0
  1182 ;;		Unchanged: 0/0
  1183 ;; Data sizes:     COMMON   BANK0   BANK1   BANK3   BANK2
  1184 ;;      Params:         0       0       5       0       0
  1185 ;;      Locals:         0      13       0       0       0
  1186 ;;      Temps:          0       1       0       0       0
  1187 ;;      Totals:         0      14       5       0       0
  1188 ;;Total ram usage:       19 bytes
  1189 ;; Hardware stack levels used: 1
  1190 ;; Hardware stack levels required when called: 7
  1191 ;; This function calls:
  1192 ;;		_vfprintf
  1193 ;; This function is called by:
  1194 ;;		_main
  1195 ;; This function uses a non-reentrant model
  1196 ;;
  1197                           
  1198     1FDF                     _sprintf:	
  1199                           ;psect for function _sprintf
  1200                           
  1201                           
  1202                           ;incstack = 0
  1203                           ; Regs used in _sprintf: [wreg-fsr0h+status,2+status,0+btemp+1+pclath+cstack]
  1204                           ;sprintf@s stored from wreg
  1205     1FDF  1283               	bcf	3,5	;RP0=0, select bank0
  1206     1FE0  1303               	bcf	3,6	;RP1=0, select bank0
  1207     1FE1  00DB               	movwf	sprintf@s
  1208     1FE2                     l3154:
  1209     1FE2  30D2               	movlw	(low ((?_sprintf| 0+1)))& (0+255)
  1210     1FE3  00DC               	movwf	sprintf@ap
  1211     1FE4  085B               	movf	sprintf@s,w
  1212     1FE5  00DD               	movwf	sprintf@f
  1213     1FE6                     l3156:
  1214     1FE6  01DF               	clrf	sprintf@f+2
  1215     1FE7  01E0               	clrf	sprintf@f+3
  1216     1FE8                     l3158:
  1217     1FE8  01E6               	clrf	sprintf@f+9
  1218     1FE9  01E7               	clrf	sprintf@f+10
  1219     1FEA                     l3160:
  1220     1FEA  1683               	bsf	3,5	;RP0=1, select bank1
  1221     1FEB  1303               	bcf	3,6	;RP1=0, select bank1
  1222     1FEC  0851               	movf	sprintf@fmt^(0+128),w
  1223     1FED  00CF               	movwf	vfprintf@fmt^(0+128)
  1224     1FEE  305C               	movlw	(low (sprintf@ap| 0))& (0+255)
  1225     1FEF  00D0               	movwf	vfprintf@ap^(0+128)
  1226     1FF0  305D               	movlw	(low (sprintf@f| 0))& (0+255)
  1227     1FF1  160A  118A  211B  160A  158A  	fcall	_vfprintf
  1228     1FF6                     l3162:
  1229     1FF6  1283               	bcf	3,5	;RP0=0, select bank0
  1230     1FF7  1303               	bcf	3,6	;RP1=0, select bank0
  1231     1FF8  085F               	movf	sprintf@f+2,w
  1232     1FF9  075B               	addwf	sprintf@s,w
  1233     1FFA  00DA               	movwf	??_sprintf
  1234     1FFB  085A               	movf	??_sprintf,w
  1235     1FFC  0084               	movwf	4
  1236     1FFD  1383               	bcf	3,7	;select IRP bank0
  1237     1FFE  0180               	clrf	0
  1238     1FFF                     l604:
  1239     1FFF  0008               	return
  1240     2000                     __end_of_sprintf:
  1241                           
  1242                           	psect	text2
  1243     111B                     __ptext2:	
  1244 ;; *************** function _vfprintf *****************
  1245 ;; Defined at:
  1246 ;;		line 1817 in file "C:\Program Files\Microchip\xc8\v2.45\pic\sources\c99\common\doprnt.c"
  1247 ;; Parameters:    Size  Location     Type
  1248 ;;  fp              1    wreg     PTR struct _IO_FILE
  1249 ;;		 -> sprintf@f(11), 
  1250 ;;  fmt             1   47[BANK1 ] PTR const unsigned char 
  1251 ;;		 -> STR_2(6), 
  1252 ;;  ap              1   48[BANK1 ] PTR PTR void 
  1253 ;;		 -> sprintf@ap(1), 
  1254 ;; Auto vars:     Size  Location     Type
  1255 ;;  fp              1   56[BANK0 ] PTR struct _IO_FILE
  1256 ;;		 -> sprintf@f(11), 
  1257 ;;  cfmt            1   57[BANK0 ] PTR unsigned char 
  1258 ;;		 -> STR_2(6), 
  1259 ;; Return value:  Size  Location     Type
  1260 ;;                  2   47[BANK1 ] int 
  1261 ;; Registers used:
  1262 ;;		wreg, fsr0l, fsr0h, status,2, status,0, btemp+1, pclath, cstack
  1263 ;; Tracked objects:
  1264 ;;		On entry : 0/0
  1265 ;;		On exit  : 0/0
  1266 ;;		Unchanged: 0/0
  1267 ;; Data sizes:     COMMON   BANK0   BANK1   BANK3   BANK2
  1268 ;;      Params:         0       0       2       0       0
  1269 ;;      Locals:         0       2       0       0       0
  1270 ;;      Temps:          0       0       0       0       0
  1271 ;;      Totals:         0       2       2       0       0
  1272 ;;Total ram usage:        4 bytes
  1273 ;; Hardware stack levels used: 1
  1274 ;; Hardware stack levels required when called: 6
  1275 ;; This function calls:
  1276 ;;		_vfpfcnvrt
  1277 ;; This function is called by:
  1278 ;;		_sprintf
  1279 ;; This function uses a non-reentrant model
  1280 ;;
  1281                           
  1282     111B                     _vfprintf:	
  1283                           ;psect for function _vfprintf
  1284                           
  1285                           
  1286                           ;incstack = 0
  1287 ;; using string table level
  1288                           ; Regs used in _vfprintf: [wreg-fsr0h+status,2+status,0+btemp+1+pclath+cstack]
  1289                           ;vfprintf@fp stored from wreg
  1290     111B  1283               	bcf	3,5	;RP0=0, select bank0
  1291     111C  1303               	bcf	3,6	;RP1=0, select bank0
  1292     111D  00D8               	movwf	vfprintf@fp
  1293     111E                     l3116:
  1294                           
  1295                           ;C:\Program Files\Microchip\xc8\v2.45\pic\sources\c99\common\doprnt.c: 1817: int vfprint
      +                          f(FILE *fp, const char *fmt, va_list ap);C:\Program Files\Microchip\xc8\v2.45\pic\source
      +                          s\c99\common\doprnt.c: 1818: {;C:\Program Files\Microchip\xc8\v2.45\pic\sources\c99\comm
      +                          on\doprnt.c: 1820:     char *cfmt;;C:\Program Files\Microchip\xc8\v2.45\pic\sources\c99\
      +                          common\doprnt.c: 1822:     cfmt = (char *)fmt;
  1296     111E  1683               	bsf	3,5	;RP0=1, select bank1
  1297     111F  1303               	bcf	3,6	;RP1=0, select bank1
  1298     1120  084F               	movf	vfprintf@fmt^(0+128),w
  1299     1121  1283               	bcf	3,5	;RP0=0, select bank0
  1300     1122  1303               	bcf	3,6	;RP1=0, select bank0
  1301     1123  00D9               	movwf	vfprintf@cfmt
  1302                           
  1303                           ;C:\Program Files\Microchip\xc8\v2.45\pic\sources\c99\common\doprnt.c: 1826:     while (
      +                          *cfmt) {
  1304     1124  2933               	goto	l3120
  1305     1125                     l3118:
  1306                           
  1307                           ;C:\Program Files\Microchip\xc8\v2.45\pic\sources\c99\common\doprnt.c: 1830:    vfpfcnvr
      +                          t(fp, &cfmt, ap);
  1308     1125  3059               	movlw	(low (vfprintf@cfmt| 0))& (0+255)
  1309     1126  1683               	bsf	3,5	;RP0=1, select bank1
  1310     1127  1303               	bcf	3,6	;RP1=0, select bank1
  1311     1128  00CD               	movwf	vfpfcnvrt@fmt^(0+128)
  1312     1129  0850               	movf	vfprintf@ap^(0+128),w
  1313     112A  00CE               	movwf	vfpfcnvrt@ap^(0+128)
  1314     112B  1283               	bcf	3,5	;RP0=0, select bank0
  1315     112C  1303               	bcf	3,6	;RP1=0, select bank0
  1316     112D  0858               	movf	vfprintf@fp,w
  1317     112E  160A  118A  26E1  160A  118A  	fcall	_vfpfcnvrt
  1318     1133                     l3120:
  1319                           
  1320                           ;C:\Program Files\Microchip\xc8\v2.45\pic\sources\c99\common\doprnt.c: 1826:     while (
      +                          *cfmt) {
  1321     1133  1283               	bcf	3,5	;RP0=0, select bank0
  1322     1134  1303               	bcf	3,6	;RP1=0, select bank0
  1323     1135  0859               	movf	vfprintf@cfmt,w
  1324     1136  0084               	movwf	4
  1325     1137  160A  118A  200A  160A  118A  	fcall	stringdir
  1326     113C  3A00               	xorlw	0
  1327     113D  1D03               	skipz
  1328     113E  2940               	goto	u4461
  1329     113F  2941               	goto	u4460
  1330     1140                     u4461:
  1331     1140  2925               	goto	l3118
  1332     1141                     u4460:
  1333     1141                     l3122:
  1334                           
  1335                           ;C:\Program Files\Microchip\xc8\v2.45\pic\sources\c99\common\doprnt.c: 1835:  return 0;
  1336     1141  1683               	bsf	3,5	;RP0=1, select bank1
  1337     1142  1303               	bcf	3,6	;RP1=0, select bank1
  1338     1143  01CF               	clrf	?_vfprintf^(0+128)
  1339     1144  01D0               	clrf	(?_vfprintf+1)^(0+128)
  1340     1145                     l722:
  1341     1145  0008               	return
  1342     1146                     __end_of_vfprintf:
  1343                           
  1344                           	psect	text3
  1345     16E1                     __ptext3:	
  1346 ;; *************** function _vfpfcnvrt *****************
  1347 ;; Defined at:
  1348 ;;		line 1177 in file "C:\Program Files\Microchip\xc8\v2.45\pic\sources\c99\common\doprnt.c"
  1349 ;; Parameters:    Size  Location     Type
  1350 ;;  fp              1    wreg     PTR struct _IO_FILE
  1351 ;;		 -> sprintf@f(11), 
  1352 ;;  fmt             1   45[BANK1 ] PTR PTR unsigned char 
  1353 ;;		 -> vfprintf@cfmt(1), 
  1354 ;;  ap              1   46[BANK1 ] PTR PTR void 
  1355 ;;		 -> sprintf@ap(1), 
  1356 ;; Auto vars:     Size  Location     Type
  1357 ;;  fp              1   53[BANK0 ] PTR struct _IO_FILE
  1358 ;;		 -> sprintf@f(11), 
  1359 ;;  convarg         4   49[BANK0 ] struct .
  1360 ;;  cp              1   55[BANK0 ] PTR unsigned char 
  1361 ;;		 -> STR_2(6), 
  1362 ;;  c               1   54[BANK0 ] unsigned char 
  1363 ;;  done            1    0        _Bool 
  1364 ;; Return value:  Size  Location     Type
  1365 ;;                  1    wreg      void 
  1366 ;; Registers used:
  1367 ;;		wreg, fsr0l, fsr0h, status,2, status,0, btemp+1, pclath, cstack
  1368 ;; Tracked objects:
  1369 ;;		On entry : 0/0
  1370 ;;		On exit  : 0/0
  1371 ;;		Unchanged: 0/0
  1372 ;; Data sizes:     COMMON   BANK0   BANK1   BANK3   BANK2
  1373 ;;      Params:         0       0       2       0       0
  1374 ;;      Locals:         0       7       0       0       0
  1375 ;;      Temps:          0       2       0       0       0
  1376 ;;      Totals:         0       9       2       0       0
  1377 ;;Total ram usage:       11 bytes
  1378 ;; Hardware stack levels used: 1
  1379 ;; Hardware stack levels required when called: 5
  1380 ;; This function calls:
  1381 ;;		_efgtoa
  1382 ;;		_fputc
  1383 ;;		_read_prec_or_width
  1384 ;; This function is called by:
  1385 ;;		_vfprintf
  1386 ;; This function uses a non-reentrant model
  1387 ;;
  1388                           
  1389     16E1                     _vfpfcnvrt:	
  1390                           ;psect for function _vfpfcnvrt
  1391                           
  1392                           
  1393                           ;incstack = 0
  1394 ;; using string table level
  1395                           ; Regs used in _vfpfcnvrt: [wreg-fsr0h+status,2+status,0+btemp+1+pclath+cstack]
  1396                           ;vfpfcnvrt@fp stored from wreg
  1397     16E1  1283               	bcf	3,5	;RP0=0, select bank0
  1398     16E2  1303               	bcf	3,6	;RP1=0, select bank0
  1399     16E3  00D5               	movwf	vfpfcnvrt@fp
  1400     16E4                     l2992:
  1401                           
  1402                           ;C:\Program Files\Microchip\xc8\v2.45\pic\sources\c99\common\doprnt.c: 1177: vfpfcnvrt(F
      +                          ILE *fp, char *fmt[], va_list ap);C:\Program Files\Microchip\xc8\v2.45\pic\sources\c99\c
      +                          ommon\doprnt.c: 1178: {;C:\Program Files\Microchip\xc8\v2.45\pic\sources\c99\common\dopr
      +                          nt.c: 1179:     char c, *cp;;C:\Program Files\Microchip\xc8\v2.45\pic\sources\c99\common
      +                          \doprnt.c: 1180:     _Bool done;;C:\Program Files\Microchip\xc8\v2.45\pic\sources\c99\co
      +                          mmon\doprnt.c: 1188:  } convarg;;C:\Program Files\Microchip\xc8\v2.45\pic\sources\c99\co
      +                          mmon\doprnt.c: 1201:     if ((*fmt)[0] == '%') {
  1403     16E4  1683               	bsf	3,5	;RP0=1, select bank1
  1404     16E5  1303               	bcf	3,6	;RP1=0, select bank1
  1405     16E6  084D               	movf	vfpfcnvrt@fmt^(0+128),w
  1406     16E7  0084               	movwf	4
  1407     16E8  1383               	bcf	3,7	;select IRP bank0
  1408     16E9  0800               	movf	0,w
  1409     16EA  0084               	movwf	4
  1410     16EB  160A  118A  200A  160A  118A  	fcall	stringdir
  1411     16F0  3A25               	xorlw	37
  1412     16F1  1D03               	skipz
  1413     16F2  2EF4               	goto	u4411
  1414     16F3  2EF5               	goto	u4410
  1415     16F4                     u4411:
  1416     16F4  2FE6               	goto	l3044
  1417     16F5                     u4410:
  1418     16F5                     l2994:
  1419                           
  1420                           ;C:\Program Files\Microchip\xc8\v2.45\pic\sources\c99\common\doprnt.c: 1202:         ++*
      +                          fmt;
  1421     16F5  3001               	movlw	1
  1422     16F6  00FF               	movwf	btemp+1
  1423     16F7  084D               	movf	vfpfcnvrt@fmt^(0+128),w
  1424     16F8  0084               	movwf	4
  1425     16F9  087F               	movf	btemp+1,w
  1426     16FA  0780               	addwf	0,f
  1427     16FB                     l2996:
  1428                           
  1429                           ;C:\Program Files\Microchip\xc8\v2.45\pic\sources\c99\common\doprnt.c: 1204:         fla
      +                          gs = width = 0;
  1430     16FB  1283               	bcf	3,5	;RP0=0, select bank0
  1431     16FC  1303               	bcf	3,6	;RP1=0, select bank0
  1432     16FD  01E8               	clrf	_width
  1433     16FE  01E9               	clrf	_width+1
  1434     16FF  1003               	clrc
  1435     1700  3000               	movlw	0
  1436     1701  1803               	btfsc	3,0
  1437     1702  3001               	movlw	1
  1438     1703  00EC               	movwf	_flags
  1439     1704                     l2998:
  1440                           
  1441                           ;C:\Program Files\Microchip\xc8\v2.45\pic\sources\c99\common\doprnt.c: 1205:         pre
      +                          c = -1;
  1442     1704  30FF               	movlw	255
  1443     1705  00EA               	movwf	_prec
  1444     1706  30FF               	movlw	255
  1445     1707  00EB               	movwf	_prec+1
  1446     1708                     l3000:
  1447                           
  1448                           ;C:\Program Files\Microchip\xc8\v2.45\pic\sources\c99\common\doprnt.c: 1265:         if 
      +                          ((*fmt)[0] == '.') {
  1449     1708  1683               	bsf	3,5	;RP0=1, select bank1
  1450     1709  1303               	bcf	3,6	;RP1=0, select bank1
  1451     170A  084D               	movf	vfpfcnvrt@fmt^(0+128),w
  1452     170B  0084               	movwf	4
  1453     170C  0800               	movf	0,w
  1454     170D  0084               	movwf	4
  1455     170E  160A  118A  200A  160A  118A  	fcall	stringdir
  1456     1713  3A2E               	xorlw	46
  1457     1714  1D03               	skipz
  1458     1715  2F17               	goto	u4421
  1459     1716  2F18               	goto	u4420
  1460     1717                     u4421:
  1461     1717  2F2C               	goto	l3006
  1462     1718                     u4420:
  1463     1718                     l3002:
  1464                           
  1465                           ;C:\Program Files\Microchip\xc8\v2.45\pic\sources\c99\common\doprnt.c: 1266:            
      +                           ++*fmt;
  1466     1718  3001               	movlw	1
  1467     1719  00FF               	movwf	btemp+1
  1468     171A  084D               	movf	vfpfcnvrt@fmt^(0+128),w
  1469     171B  0084               	movwf	4
  1470     171C  087F               	movf	btemp+1,w
  1471     171D  0780               	addwf	0,f
  1472     171E                     l3004:
  1473                           
  1474                           ;C:\Program Files\Microchip\xc8\v2.45\pic\sources\c99\common\doprnt.c: 1267:    prec = r
      +                          ead_prec_or_width(fmt, ap);
  1475     171E  084E               	movf	vfpfcnvrt@ap^(0+128),w
  1476     171F  00F6               	movwf	read_prec_or_width@ap
  1477     1720  084D               	movf	vfpfcnvrt@fmt^(0+128),w
  1478     1721  160A  118A  2282  160A  118A  	fcall	_read_prec_or_width
  1479     1726  0877               	movf	?_read_prec_or_width+1,w
  1480     1727  1283               	bcf	3,5	;RP0=0, select bank0
  1481     1728  1303               	bcf	3,6	;RP1=0, select bank0
  1482     1729  00EB               	movwf	_prec+1
  1483     172A  0876               	movf	?_read_prec_or_width,w
  1484     172B  00EA               	movwf	_prec
  1485     172C                     l3006:
  1486                           
  1487                           ;C:\Program Files\Microchip\xc8\v2.45\pic\sources\c99\common\doprnt.c: 1689:   cp = *fmt
      +                          ;
  1488     172C  1683               	bsf	3,5	;RP0=1, select bank1
  1489     172D  1303               	bcf	3,6	;RP1=0, select bank1
  1490     172E  084D               	movf	vfpfcnvrt@fmt^(0+128),w
  1491     172F  0084               	movwf	4
  1492     1730  1383               	bcf	3,7	;select IRP bank0
  1493     1731  0800               	movf	0,w
  1494     1732  1283               	bcf	3,5	;RP0=0, select bank0
  1495     1733  1303               	bcf	3,6	;RP1=0, select bank0
  1496     1734  00D7               	movwf	vfpfcnvrt@cp
  1497     1735                     l3008:
  1498                           
  1499                           ;C:\Program Files\Microchip\xc8\v2.45\pic\sources\c99\common\doprnt.c: 1690:   c = *cp;
  1500     1735  0857               	movf	vfpfcnvrt@cp,w
  1501     1736  0084               	movwf	4
  1502     1737  160A  118A  200A  160A  118A  	fcall	stringdir
  1503     173C  00D6               	movwf	vfpfcnvrt@c
  1504                           
  1505                           ;C:\Program Files\Microchip\xc8\v2.45\pic\sources\c99\common\doprnt.c: 1691:   switch(c)
      +                           {
  1506     173D  2F48               	goto	l3018
  1507     173E                     l3010:
  1508                           
  1509                           ;C:\Program Files\Microchip\xc8\v2.45\pic\sources\c99\common\doprnt.c: 1695:     cp++;
  1510     173E  3001               	movlw	1
  1511     173F  00FF               	movwf	btemp+1
  1512     1740  087F               	movf	btemp+1,w
  1513     1741  07D7               	addwf	vfpfcnvrt@cp,f
  1514                           
  1515                           ;C:\Program Files\Microchip\xc8\v2.45\pic\sources\c99\common\doprnt.c: 1696:     break;
  1516     1742  2F5B               	goto	l3020
  1517     1743                     l3012:
  1518                           
  1519                           ;C:\Program Files\Microchip\xc8\v2.45\pic\sources\c99\common\doprnt.c: 1721:     c = 'l'
      +                          ;
  1520     1743  306C               	movlw	108
  1521     1744  00D6               	movwf	vfpfcnvrt@c
  1522                           
  1523                           ;C:\Program Files\Microchip\xc8\v2.45\pic\sources\c99\common\doprnt.c: 1722:     break;
  1524     1745  2F5B               	goto	l3020
  1525     1746                     l3014:
  1526                           
  1527                           ;C:\Program Files\Microchip\xc8\v2.45\pic\sources\c99\common\doprnt.c: 1724:     c = 0;
  1528     1746  01D6               	clrf	vfpfcnvrt@c
  1529                           
  1530                           ;C:\Program Files\Microchip\xc8\v2.45\pic\sources\c99\common\doprnt.c: 1725:     break;
  1531     1747  2F5B               	goto	l3020
  1532     1748                     l3018:
  1533     1748  0856               	movf	vfpfcnvrt@c,w
  1534     1749  00CF               	movwf	??_vfpfcnvrt
  1535     174A  01D0               	clrf	??_vfpfcnvrt+1
  1536                           
  1537                           ; Switch on 2 bytes has been partitioned into a top level switch of size 1, and 1 sub-sw
      +                          itches
  1538                           ; Switch size 1, requested type "simple"
  1539                           ; Number of cases is 1, Range of values is 0 to 0
  1540                           ; switch strategies available:
  1541                           ; Name         Instructions Cycles
  1542                           ; simple_byte            4     3 (average)
  1543                           ; direct_byte           11     8 (fixed)
  1544                           ; jumptable            260     6 (fixed)
  1545                           ;	Chosen strategy is simple_byte
  1546     174B  0850               	movf	??_vfpfcnvrt+1,w
  1547     174C  3A00               	xorlw	0	; case 0
  1548     174D  1903               	skipnz
  1549     174E  2F50               	goto	l3326
  1550     174F  2F46               	goto	l3014
  1551     1750                     l3326:
  1552                           
  1553                           ; Switch size 1, requested type "simple"
  1554                           ; Number of cases is 3, Range of values is 76 to 108
  1555                           ; switch strategies available:
  1556                           ; Name         Instructions Cycles
  1557                           ; simple_byte           10     6 (average)
  1558                           ; direct_byte          110    11 (fixed)
  1559                           ; jumptable            263     9 (fixed)
  1560                           ;	Chosen strategy is simple_byte
  1561     1750  084F               	movf	??_vfpfcnvrt,w
  1562     1751  3A4C               	xorlw	76	; case 76
  1563     1752  1903               	skipnz
  1564     1753  2F3E               	goto	l3010
  1565     1754  3A2A               	xorlw	42	; case 102
  1566     1755  1903               	skipnz
  1567     1756  2F43               	goto	l3012
  1568     1757  3A0A               	xorlw	10	; case 108
  1569     1758  1903               	skipnz
  1570     1759  2F3E               	goto	l3010
  1571     175A  2F46               	goto	l3014
  1572     175B                     l3020:
  1573     175B  0857               	movf	vfpfcnvrt@cp,w
  1574     175C  0084               	movwf	4
  1575     175D  160A  118A  200A  160A  118A  	fcall	stringdir
  1576     1762  3A66               	xorlw	102
  1577     1763  1D03               	skipz
  1578     1764  2F66               	goto	u4431
  1579     1765  2F67               	goto	u4430
  1580     1766                     u4431:
  1581     1766  2FDC               	goto	l3040
  1582     1767                     u4430:
  1583     1767  2F98               	goto	l3028
  1584     1768                     l3022:
  1585                           
  1586                           ;C:\Program Files\Microchip\xc8\v2.45\pic\sources\c99\common\doprnt.c: 1756:      convar
      +                          g.f = (long double)(*(double *)__va_arg(*(double **)ap, (double)0));
  1587     1768  1683               	bsf	3,5	;RP0=1, select bank1
  1588     1769  1303               	bcf	3,6	;RP1=0, select bank1
  1589     176A  084E               	movf	vfpfcnvrt@ap^(0+128),w
  1590     176B  0084               	movwf	4
  1591     176C  0800               	movf	0,w
  1592     176D  00FF               	movwf	btemp+1
  1593     176E  3004               	movlw	4
  1594     176F  0780               	addwf	0,f
  1595     1770  087F               	movf	btemp+1,w
  1596     1771  0084               	movwf	4
  1597     1772  0800               	movf	0,w
  1598     1773  1283               	bcf	3,5	;RP0=0, select bank0
  1599     1774  1303               	bcf	3,6	;RP1=0, select bank0
  1600     1775  00D1               	movwf	vfpfcnvrt@convarg
  1601     1776  0A84               	incf	4,f
  1602     1777  0800               	movf	0,w
  1603     1778  00D2               	movwf	vfpfcnvrt@convarg+1
  1604     1779  0A84               	incf	4,f
  1605     177A  0800               	movf	0,w
  1606     177B  00D3               	movwf	vfpfcnvrt@convarg+2
  1607     177C  0A84               	incf	4,f
  1608     177D  0800               	movf	0,w
  1609     177E  00D4               	movwf	vfpfcnvrt@convarg+3
  1610                           
  1611                           ;C:\Program Files\Microchip\xc8\v2.45\pic\sources\c99\common\doprnt.c: 1757:      break;
  1612     177F  2FA8               	goto	l3030
  1613     1780                     l3024:
  1614                           
  1615                           ;C:\Program Files\Microchip\xc8\v2.45\pic\sources\c99\common\doprnt.c: 1759:      convar
      +                          g.f = (long double)(*(long double *)__va_arg(*(long double **)ap, (long double)0));
  1616     1780  1683               	bsf	3,5	;RP0=1, select bank1
  1617     1781  1303               	bcf	3,6	;RP1=0, select bank1
  1618     1782  084E               	movf	vfpfcnvrt@ap^(0+128),w
  1619     1783  0084               	movwf	4
  1620     1784  0800               	movf	0,w
  1621     1785  00FF               	movwf	btemp+1
  1622     1786  3004               	movlw	4
  1623     1787  0780               	addwf	0,f
  1624     1788  087F               	movf	btemp+1,w
  1625     1789  0084               	movwf	4
  1626     178A  0800               	movf	0,w
  1627     178B  1283               	bcf	3,5	;RP0=0, select bank0
  1628     178C  1303               	bcf	3,6	;RP1=0, select bank0
  1629     178D  00D1               	movwf	vfpfcnvrt@convarg
  1630     178E  0A84               	incf	4,f
  1631     178F  0800               	movf	0,w
  1632     1790  00D2               	movwf	vfpfcnvrt@convarg+1
  1633     1791  0A84               	incf	4,f
  1634     1792  0800               	movf	0,w
  1635     1793  00D3               	movwf	vfpfcnvrt@convarg+2
  1636     1794  0A84               	incf	4,f
  1637     1795  0800               	movf	0,w
  1638     1796  00D4               	movwf	vfpfcnvrt@convarg+3
  1639                           
  1640                           ;C:\Program Files\Microchip\xc8\v2.45\pic\sources\c99\common\doprnt.c: 1760:      break;
  1641     1797  2FA8               	goto	l3030
  1642     1798                     l3028:
  1643     1798  0856               	movf	vfpfcnvrt@c,w
  1644     1799  00CF               	movwf	??_vfpfcnvrt
  1645     179A  01D0               	clrf	??_vfpfcnvrt+1
  1646                           
  1647                           ; Switch on 2 bytes has been partitioned into a top level switch of size 1, and 1 sub-sw
      +                          itches
  1648                           ; Switch size 1, requested type "simple"
  1649                           ; Number of cases is 1, Range of values is 0 to 0
  1650                           ; switch strategies available:
  1651                           ; Name         Instructions Cycles
  1652                           ; simple_byte            4     3 (average)
  1653                           ; direct_byte           11     8 (fixed)
  1654                           ; jumptable            260     6 (fixed)
  1655                           ;	Chosen strategy is simple_byte
  1656     179B  0850               	movf	??_vfpfcnvrt+1,w
  1657     179C  3A00               	xorlw	0	; case 0
  1658     179D  1903               	skipnz
  1659     179E  2FA0               	goto	l3328
  1660     179F  2FA8               	goto	l3030
  1661     17A0                     l3328:
  1662                           
  1663                           ; Switch size 1, requested type "simple"
  1664                           ; Number of cases is 2, Range of values is 76 to 108
  1665                           ; switch strategies available:
  1666                           ; Name         Instructions Cycles
  1667                           ; simple_byte            7     4 (average)
  1668                           ; direct_byte          110    11 (fixed)
  1669                           ; jumptable            263     9 (fixed)
  1670                           ;	Chosen strategy is simple_byte
  1671     17A0  084F               	movf	??_vfpfcnvrt,w
  1672     17A1  3A4C               	xorlw	76	; case 76
  1673     17A2  1903               	skipnz
  1674     17A3  2F80               	goto	l3024
  1675     17A4  3A20               	xorlw	32	; case 108
  1676     17A5  1903               	skipnz
  1677     17A6  2F68               	goto	l3022
  1678     17A7  2FA8               	goto	l3030
  1679     17A8                     l3030:
  1680                           
  1681                           ;C:\Program Files\Microchip\xc8\v2.45\pic\sources\c99\common\doprnt.c: 1762:    *fmt = c
      +                          p+1;
  1682     17A8  1683               	bsf	3,5	;RP0=1, select bank1
  1683     17A9  1303               	bcf	3,6	;RP1=0, select bank1
  1684     17AA  084D               	movf	vfpfcnvrt@fmt^(0+128),w
  1685     17AB  0084               	movwf	4
  1686     17AC  1283               	bcf	3,5	;RP0=0, select bank0
  1687     17AD  1303               	bcf	3,6	;RP1=0, select bank0
  1688     17AE  0857               	movf	vfpfcnvrt@cp,w
  1689     17AF  3E01               	addlw	1
  1690     17B0  0080               	movwf	0
  1691                           
  1692                           ;C:\Program Files\Microchip\xc8\v2.45\pic\sources\c99\common\doprnt.c: 1763:    switch (
      +                          *cp) {
  1693     17B1  2FC9               	goto	l3038
  1694     17B2                     l3032:
  1695                           
  1696                           ;C:\Program Files\Microchip\xc8\v2.45\pic\sources\c99\common\doprnt.c: 1790:      return
      +                           (void) efgtoa(fp, convarg.f, *cp);;	Return value of _vfpfcnvrt is never used
  1697     17B2  0854               	movf	vfpfcnvrt@convarg+3,w
  1698     17B3  00C9               	movwf	efgtoa@f+3
  1699     17B4  0853               	movf	vfpfcnvrt@convarg+2,w
  1700     17B5  00C8               	movwf	efgtoa@f+2
  1701     17B6  0852               	movf	vfpfcnvrt@convarg+1,w
  1702     17B7  00C7               	movwf	efgtoa@f+1
  1703     17B8  0851               	movf	vfpfcnvrt@convarg,w
  1704     17B9  00C6               	movwf	efgtoa@f
  1705     17BA  0857               	movf	vfpfcnvrt@cp,w
  1706     17BB  0084               	movwf	4
  1707     17BC  160A  118A  200A  160A  118A  	fcall	stringdir
  1708     17C1  00CA               	movwf	efgtoa@c
  1709     17C2  0855               	movf	vfpfcnvrt@fp,w
  1710     17C3  160A  118A  25C8  160A  118A  	fcall	_efgtoa
  1711     17C8  2FFF               	goto	l715
  1712     17C9                     l3038:
  1713     17C9  0857               	movf	vfpfcnvrt@cp,w
  1714     17CA  0084               	movwf	4
  1715     17CB  160A  118A  200A  160A  118A  	fcall	stringdir
  1716     17D0  00CF               	movwf	??_vfpfcnvrt
  1717     17D1  01D0               	clrf	??_vfpfcnvrt+1
  1718                           
  1719                           ; Switch on 2 bytes has been partitioned into a top level switch of size 1, and 1 sub-sw
      +                          itches
  1720                           ; Switch size 1, requested type "simple"
  1721                           ; Number of cases is 1, Range of values is 0 to 0
  1722                           ; switch strategies available:
  1723                           ; Name         Instructions Cycles
  1724                           ; simple_byte            4     3 (average)
  1725                           ; direct_byte           11     8 (fixed)
  1726                           ; jumptable            260     6 (fixed)
  1727                           ;	Chosen strategy is simple_byte
  1728     17D2  0850               	movf	??_vfpfcnvrt+1,w
  1729     17D3  3A00               	xorlw	0	; case 0
  1730     17D4  1903               	skipnz
  1731     17D5  2FD7               	goto	l3330
  1732     17D6  2FDC               	goto	l3040
  1733     17D7                     l3330:
  1734                           
  1735                           ; Switch size 1, requested type "simple"
  1736                           ; Number of cases is 1, Range of values is 102 to 102
  1737                           ; switch strategies available:
  1738                           ; Name         Instructions Cycles
  1739                           ; simple_byte            4     3 (average)
  1740                           ; direct_byte           14    11 (fixed)
  1741                           ; jumptable            263     9 (fixed)
  1742                           ;	Chosen strategy is simple_byte
  1743     17D7  084F               	movf	??_vfpfcnvrt,w
  1744     17D8  3A66               	xorlw	102	; case 102
  1745     17D9  1903               	skipnz
  1746     17DA  2FB2               	goto	l3032
  1747     17DB  2FDC               	goto	l3040
  1748     17DC                     l3040:
  1749                           
  1750                           ;C:\Program Files\Microchip\xc8\v2.45\pic\sources\c99\common\doprnt.c: 1806:         ++*
      +                          fmt;
  1751     17DC  3001               	movlw	1
  1752     17DD  00FF               	movwf	btemp+1
  1753     17DE  1683               	bsf	3,5	;RP0=1, select bank1
  1754     17DF  1303               	bcf	3,6	;RP1=0, select bank1
  1755     17E0  084D               	movf	vfpfcnvrt@fmt^(0+128),w
  1756     17E1  0084               	movwf	4
  1757     17E2  087F               	movf	btemp+1,w
  1758     17E3  1383               	bcf	3,7	;select IRP bank0
  1759     17E4  0780               	addwf	0,f
  1760     17E5  2FFF               	goto	l715
  1761     17E6                     l3044:
  1762                           
  1763                           ;C:\Program Files\Microchip\xc8\v2.45\pic\sources\c99\common\doprnt.c: 1811:     fputc((
      +                          int)(*fmt)[0], fp);
  1764     17E6  084D               	movf	vfpfcnvrt@fmt^(0+128),w
  1765     17E7  0084               	movwf	4
  1766     17E8  0800               	movf	0,w
  1767     17E9  0084               	movwf	4
  1768     17EA  160A  118A  200A  160A  118A  	fcall	stringdir
  1769     17EF  1283               	bcf	3,5	;RP0=0, select bank0
  1770     17F0  1303               	bcf	3,6	;RP1=0, select bank0
  1771     17F1  00CF               	movwf	??_vfpfcnvrt
  1772     17F2  01D0               	clrf	??_vfpfcnvrt+1
  1773     17F3  084F               	movf	??_vfpfcnvrt,w
  1774     17F4  00F0               	movwf	fputc@c
  1775     17F5  0850               	movf	??_vfpfcnvrt+1,w
  1776     17F6  00F1               	movwf	fputc@c+1
  1777     17F7  0855               	movf	vfpfcnvrt@fp,w
  1778     17F8  00F2               	movwf	fputc@fp
  1779     17F9  160A  118A  222C  160A  118A  	fcall	_fputc
  1780     17FE  2FDC               	goto	l3040
  1781     17FF                     l715:
  1782     17FF  0008               	return
  1783     1800                     __end_of_vfpfcnvrt:
  1784                           
  1785                           	psect	text4
  1786     1282                     __ptext4:	
  1787 ;; *************** function _read_prec_or_width *****************
  1788 ;; Defined at:
  1789 ;;		line 1158 in file "C:\Program Files\Microchip\xc8\v2.45\pic\sources\c99\common\doprnt.c"
  1790 ;; Parameters:    Size  Location     Type
  1791 ;;  fmt             1    wreg     PTR PTR const unsigned c
  1792 ;;		 -> vfprintf@cfmt(1), 
  1793 ;;  ap              1    6[COMMON] PTR PTR void [1]
  1794 ;;		 -> sprintf@ap(1), 
  1795 ;; Auto vars:     Size  Location     Type
  1796 ;;  fmt             1   11[COMMON] PTR PTR const unsigned c
  1797 ;;		 -> vfprintf@cfmt(1), 
  1798 ;;  c               1    8[COMMON] unsigned char 
  1799 ;;  n               2    9[COMMON] int 
  1800 ;; Return value:  Size  Location     Type
  1801 ;;                  2    6[COMMON] int 
  1802 ;; Registers used:
  1803 ;;		wreg, fsr0l, fsr0h, status,2, status,0, btemp+1, pclath, cstack
  1804 ;; Tracked objects:
  1805 ;;		On entry : 0/0
  1806 ;;		On exit  : 0/0
  1807 ;;		Unchanged: 0/0
  1808 ;; Data sizes:     COMMON   BANK0   BANK1   BANK3   BANK2
  1809 ;;      Params:         2       0       0       0       0
  1810 ;;      Locals:         4       0       0       0       0
  1811 ;;      Temps:          0       0       0       0       0
  1812 ;;      Totals:         6       0       0       0       0
  1813 ;;Total ram usage:        6 bytes
  1814 ;; Hardware stack levels used: 1
  1815 ;; Hardware stack levels required when called: 1
  1816 ;; This function calls:
  1817 ;;		___wmul
  1818 ;; This function is called by:
  1819 ;;		_vfpfcnvrt
  1820 ;; This function uses a non-reentrant model
  1821 ;;
  1822                           
  1823     1282                     _read_prec_or_width:	
  1824                           ;psect for function _read_prec_or_width
  1825                           
  1826                           
  1827                           ;incstack = 0
  1828                           ; Regs used in _read_prec_or_width: [wreg-fsr0h+status,2+status,0+btemp+1+pclath+cstack]
  1829                           ;read_prec_or_width@fmt stored from wreg
  1830     1282  00FB               	movwf	read_prec_or_width@fmt
  1831     1283                     l2976:
  1832                           
  1833                           ;C:\Program Files\Microchip\xc8\v2.45\pic\sources\c99\common\doprnt.c: 1159:     int n =
      +                           0;
  1834     1283  01F9               	clrf	read_prec_or_width@n
  1835     1284  01FA               	clrf	read_prec_or_width@n+1
  1836     1285                     l2978:
  1837                           
  1838                           ;C:\Program Files\Microchip\xc8\v2.45\pic\sources\c99\common\doprnt.c: 1160:     if ((*f
      +                          mt)[0] == '*') {
  1839     1285  087B               	movf	read_prec_or_width@fmt,w
  1840     1286  0084               	movwf	4
  1841     1287  1383               	bcf	3,7	;select IRP bank0
  1842     1288  0800               	movf	0,w
  1843     1289  0084               	movwf	4
  1844     128A  160A  118A  200A  160A  118A  	fcall	stringdir
  1845     128F  3A2A               	xorlw	42
  1846     1290  1D03               	skipz
  1847     1291  2A93               	goto	u4391
  1848     1292  2A94               	goto	u4390
  1849     1293                     u4391:
  1850     1293  2AC4               	goto	l2986
  1851     1294                     u4390:
  1852     1294                     l2980:
  1853                           
  1854                           ;C:\Program Files\Microchip\xc8\v2.45\pic\sources\c99\common\doprnt.c: 1161:         ++*
      +                          fmt;
  1855     1294  3001               	movlw	1
  1856     1295  00FF               	movwf	btemp+1
  1857     1296  087B               	movf	read_prec_or_width@fmt,w
  1858     1297  0084               	movwf	4
  1859     1298  087F               	movf	btemp+1,w
  1860     1299  0780               	addwf	0,f
  1861                           
  1862                           ;C:\Program Files\Microchip\xc8\v2.45\pic\sources\c99\common\doprnt.c: 1162:         n =
      +                           (*(int *)__va_arg(*(int **)*ap, (int)0));
  1863     129A  0876               	movf	read_prec_or_width@ap,w
  1864     129B  0084               	movwf	4
  1865     129C  0800               	movf	0,w
  1866     129D  00FF               	movwf	btemp+1
  1867     129E  3002               	movlw	2
  1868     129F  0780               	addwf	0,f
  1869     12A0  087F               	movf	btemp+1,w
  1870     12A1  0084               	movwf	4
  1871     12A2  0800               	movf	0,w
  1872     12A3  00F9               	movwf	read_prec_or_width@n
  1873     12A4  0A84               	incf	4,f
  1874     12A5  0800               	movf	0,w
  1875     12A6  00FA               	movwf	read_prec_or_width@n+1
  1876                           
  1877                           ;C:\Program Files\Microchip\xc8\v2.45\pic\sources\c99\common\doprnt.c: 1163:     } else 
      +                          {
  1878     12A7  2AD5               	goto	l2988
  1879     12A8                     l2982:
  1880                           
  1881                           ;C:\Program Files\Microchip\xc8\v2.45\pic\sources\c99\common\doprnt.c: 1166:            
      +                           n = n * 10 + c;
  1882     12A8  087A               	movf	read_prec_or_width@n+1,w
  1883     12A9  00F1               	movwf	___wmul@multiplier+1
  1884     12AA  0879               	movf	read_prec_or_width@n,w
  1885     12AB  00F0               	movwf	___wmul@multiplier
  1886     12AC  300A               	movlw	10
  1887     12AD  00F2               	movwf	___wmul@multiplicand
  1888     12AE  3000               	movlw	0
  1889     12AF  00F3               	movwf	___wmul@multiplicand+1
  1890     12B0  160A  118A  2054  160A  118A  	fcall	___wmul
  1891     12B5  0878               	movf	read_prec_or_width@c,w
  1892     12B6  0770               	addwf	?___wmul,w
  1893     12B7  00F9               	movwf	read_prec_or_width@n
  1894     12B8  3000               	movlw	0
  1895     12B9  1803               	skipnc
  1896     12BA  3001               	movlw	1
  1897     12BB  0771               	addwf	?___wmul+1,w
  1898     12BC  00FA               	movwf	read_prec_or_width@n+1
  1899     12BD                     l2984:
  1900                           
  1901                           ;C:\Program Files\Microchip\xc8\v2.45\pic\sources\c99\common\doprnt.c: 1167:            
      +                           ++*fmt;
  1902     12BD  3001               	movlw	1
  1903     12BE  00FF               	movwf	btemp+1
  1904     12BF  087B               	movf	read_prec_or_width@fmt,w
  1905     12C0  0084               	movwf	4
  1906     12C1  087F               	movf	btemp+1,w
  1907     12C2  1383               	bcf	3,7	;select IRP bank0
  1908     12C3  0780               	addwf	0,f
  1909     12C4                     l2986:
  1910                           
  1911                           ;C:\Program Files\Microchip\xc8\v2.45\pic\sources\c99\common\doprnt.c: 1165:         whi
      +                          le ((c = ((unsigned)(*fmt)[0]) - '0') < 10) {
  1912     12C4  087B               	movf	read_prec_or_width@fmt,w
  1913     12C5  0084               	movwf	4
  1914     12C6  0800               	movf	0,w
  1915     12C7  0084               	movwf	4
  1916     12C8  160A  118A  200A  160A  118A  	fcall	stringdir
  1917     12CD  3ED0               	addlw	208
  1918     12CE  00F8               	movwf	read_prec_or_width@c
  1919     12CF  300A               	movlw	10
  1920     12D0  0278               	subwf	read_prec_or_width@c,w
  1921     12D1  1C03               	skipc
  1922     12D2  2AD4               	goto	u4401
  1923     12D3  2AD5               	goto	u4400
  1924     12D4                     u4401:
  1925     12D4  2AA8               	goto	l2982
  1926     12D5                     u4400:
  1927     12D5                     l2988:
  1928                           
  1929                           ;C:\Program Files\Microchip\xc8\v2.45\pic\sources\c99\common\doprnt.c: 1170:     return 
      +                          n;
  1930     12D5  087A               	movf	read_prec_or_width@n+1,w
  1931     12D6  00F7               	movwf	?_read_prec_or_width+1
  1932     12D7  0879               	movf	read_prec_or_width@n,w
  1933     12D8  00F6               	movwf	?_read_prec_or_width
  1934     12D9                     l695:
  1935     12D9  0008               	return
  1936     12DA                     __end_of_read_prec_or_width:
  1937                           
  1938                           	psect	text5
  1939     1054                     __ptext5:	
  1940 ;; *************** function ___wmul *****************
  1941 ;; Defined at:
  1942 ;;		line 15 in file "C:\Program Files\Microchip\xc8\v2.45\pic\sources\c99\common\Umul16.c"
  1943 ;; Parameters:    Size  Location     Type
  1944 ;;  multiplier      2    0[COMMON] unsigned int 
  1945 ;;  multiplicand    2    2[COMMON] unsigned int 
  1946 ;; Auto vars:     Size  Location     Type
  1947 ;;  product         2    4[COMMON] unsigned int 
  1948 ;; Return value:  Size  Location     Type
  1949 ;;                  2    0[COMMON] unsigned int 
  1950 ;; Registers used:
  1951 ;;		wreg, status,2, status,0
  1952 ;; Tracked objects:
  1953 ;;		On entry : 0/0
  1954 ;;		On exit  : 0/0
  1955 ;;		Unchanged: 0/0
  1956 ;; Data sizes:     COMMON   BANK0   BANK1   BANK3   BANK2
  1957 ;;      Params:         4       0       0       0       0
  1958 ;;      Locals:         2       0       0       0       0
  1959 ;;      Temps:          0       0       0       0       0
  1960 ;;      Totals:         6       0       0       0       0
  1961 ;;Total ram usage:        6 bytes
  1962 ;; Hardware stack levels used: 1
  1963 ;; This function calls:
  1964 ;;		Nothing
  1965 ;; This function is called by:
  1966 ;;		_read_prec_or_width
  1967 ;; This function uses a non-reentrant model
  1968 ;;
  1969                           
  1970     1054                     ___wmul:	
  1971                           ;psect for function ___wmul
  1972                           
  1973     1054                     l2294:	
  1974                           ;incstack = 0
  1975                           ; Regs used in ___wmul: [wreg+status,2+status,0]
  1976                           
  1977     1054  01F4               	clrf	___wmul@product
  1978     1055  01F5               	clrf	___wmul@product+1
  1979     1056                     l2296:
  1980     1056  1C70               	btfss	___wmul@multiplier,0
  1981     1057  2859               	goto	u2871
  1982     1058  285A               	goto	u2870
  1983     1059                     u2871:
  1984     1059  2860               	goto	l141
  1985     105A                     u2870:
  1986     105A                     l2298:
  1987     105A  0872               	movf	___wmul@multiplicand,w
  1988     105B  07F4               	addwf	___wmul@product,f
  1989     105C  1803               	skipnc
  1990     105D  0AF5               	incf	___wmul@product+1,f
  1991     105E  0873               	movf	___wmul@multiplicand+1,w
  1992     105F  07F5               	addwf	___wmul@product+1,f
  1993     1060                     l141:
  1994     1060  3001               	movlw	1
  1995     1061                     u2885:
  1996     1061  1003               	clrc
  1997     1062  0DF2               	rlf	___wmul@multiplicand,f
  1998     1063  0DF3               	rlf	___wmul@multiplicand+1,f
  1999     1064  3EFF               	addlw	-1
  2000     1065  1D03               	skipz
  2001     1066  2861               	goto	u2885
  2002     1067                     l2300:
  2003     1067  3001               	movlw	1
  2004     1068                     u2895:
  2005     1068  1003               	clrc
  2006     1069  0CF1               	rrf	___wmul@multiplier+1,f
  2007     106A  0CF0               	rrf	___wmul@multiplier,f
  2008     106B  3EFF               	addlw	-1
  2009     106C  1D03               	skipz
  2010     106D  2868               	goto	u2895
  2011     106E                     l2302:
  2012     106E  0870               	movf	___wmul@multiplier,w
  2013     106F  0471               	iorwf	___wmul@multiplier+1,w
  2014     1070  1D03               	btfss	3,2
  2015     1071  2873               	goto	u2901
  2016     1072  2874               	goto	u2900
  2017     1073                     u2901:
  2018     1073  2856               	goto	l2296
  2019     1074                     u2900:
  2020     1074                     l2304:
  2021     1074  0875               	movf	___wmul@product+1,w
  2022     1075  00F1               	movwf	?___wmul+1
  2023     1076  0874               	movf	___wmul@product,w
  2024     1077  00F0               	movwf	?___wmul
  2025     1078                     l143:
  2026     1078  0008               	return
  2027     1079                     __end_of___wmul:
  2028                           
  2029                           	psect	text6
  2030     15C8                     __ptext6:	
  2031 ;; *************** function _efgtoa *****************
  2032 ;; Defined at:
  2033 ;;		line 587 in file "C:\Program Files\Microchip\xc8\v2.45\pic\sources\c99\common\doprnt.c"
  2034 ;; Parameters:    Size  Location     Type
  2035 ;;  fp              1    wreg     PTR struct _IO_FILE
  2036 ;;		 -> sprintf@f(11), 
  2037 ;;  f               4   38[BANK0 ] PTR struct _IO_FILE
  2038 ;;  c               1   42[BANK0 ] unsigned char 
  2039 ;; Auto vars:     Size  Location     Type
  2040 ;;  fp              1   15[BANK1 ] PTR struct _IO_FILE
  2041 ;;		 -> sprintf@f(11), 
  2042 ;;  u               4   41[BANK1 ] struct flui
  2043 ;;  g               4   37[BANK1 ] struct flui
  2044 ;;  l               4   30[BANK1 ] struct flui
  2045 ;;  h               4   26[BANK1 ] struct flui
  2046 ;;  ou              4   20[BANK1 ] struct flui
  2047 ;;  n               2   35[BANK1 ] int 
  2048 ;;  i               2   24[BANK1 ] int 
  2049 ;;  w               2   18[BANK1 ] int 
  2050 ;;  e               2   16[BANK1 ] int 
  2051 ;;  m               2   13[BANK1 ] int 
  2052 ;;  d               2   11[BANK1 ] int 
  2053 ;;  t               2    4[BANK1 ] int 
  2054 ;;  p               2    2[BANK1 ] int 
  2055 ;;  ne              2    0[BANK1 ] int 
  2056 ;;  sign            1   34[BANK1 ] unsigned char 
  2057 ;;  nmode           1   10[BANK1 ] unsigned char 
  2058 ;;  mode            1    9[BANK1 ] unsigned char 
  2059 ;;  pp              1    8[BANK1 ] unsigned char 
  2060 ;;  esign           1    0        unsigned char 
  2061 ;; Return value:  Size  Location     Type
  2062 ;;                  1    wreg      void 
  2063 ;; Registers used:
  2064 ;;		wreg, fsr0l, fsr0h, status,2, status,0, btemp+1, pclath, cstack
  2065 ;; Tracked objects:
  2066 ;;		On entry : 0/0
  2067 ;;		On exit  : 0/0
  2068 ;;		Unchanged: 0/0
  2069 ;; Data sizes:     COMMON   BANK0   BANK1   BANK3   BANK2
  2070 ;;      Params:         0       5       0       0       0
  2071 ;;      Locals:         0       0      45       0       0
  2072 ;;      Temps:          0       4       0       0       0
  2073 ;;      Totals:         0       9      45       0       0
  2074 ;;Total ram usage:       54 bytes
  2075 ;; Hardware stack levels used: 1
  2076 ;; Hardware stack levels required when called: 4
  2077 ;; This function calls:
  2078 ;;		___fladd
  2079 ;;		___fldiv
  2080 ;;		___fleq
  2081 ;;		___flge
  2082 ;;		___flmul
  2083 ;;		___flneg
  2084 ;;		___flsub
  2085 ;;		___fltol
  2086 ;;		___fpclassifyf
  2087 ;;		_floorf
  2088 ;;		_labs
  2089 ;;		_memcpy
  2090 ;;		_pad
  2091 ;;		_strcpy
  2092 ;; This function is called by:
  2093 ;;		_vfpfcnvrt
  2094 ;; This function uses a non-reentrant model
  2095 ;;
  2096                           
  2097     15C8                     _efgtoa:	
  2098                           ;psect for function _efgtoa
  2099                           
  2100                           
  2101                           ;incstack = 0
  2102                           ; Regs used in _efgtoa: [wreg-fsr0h+status,2+status,0+btemp+1+pclath+cstack]
  2103                           ;efgtoa@fp stored from wreg
  2104     15C8  1683               	bsf	3,5	;RP0=1, select bank1
  2105     15C9  1303               	bcf	3,6	;RP1=0, select bank1
  2106     15CA  00AF               	movwf	efgtoa@fp^(0+128)
  2107     15CB                     l2768:
  2108                           
  2109                           ;C:\Program Files\Microchip\xc8\v2.45\pic\sources\c99\common\doprnt.c: 587: static void 
      +                          efgtoa(FILE *fp, long double f, char c);C:\Program Files\Microchip\xc8\v2.45\pic\sources
      +                          \c99\common\doprnt.c: 588: {;C:\Program Files\Microchip\xc8\v2.45\pic\sources\c99\common
      +                          \doprnt.c: 589:     char mode, nmode, pp, sign, esign;;C:\Program Files\Microchip\xc8\v2
      +                          .45\pic\sources\c99\common\doprnt.c: 590:     int d, e, i, m, n, ne, p, t, w;;C:\Program
      +                           Files\Microchip\xc8\v2.45\pic\sources\c99\common\doprnt.c: 591:     long double h, l;
  2110     15CB  01C2               	clrf	efgtoa@sign^(0+128)
  2111     15CC                     l2770:
  2112                           
  2113                           ;C:\Program Files\Microchip\xc8\v2.45\pic\sources\c99\common\doprnt.c: 596:     g.f = f;
  2114     15CC  1283               	bcf	3,5	;RP0=0, select bank0
  2115     15CD  1303               	bcf	3,6	;RP1=0, select bank0
  2116     15CE  0849               	movf	efgtoa@f+3,w
  2117     15CF  1683               	bsf	3,5	;RP0=1, select bank1
  2118     15D0  1303               	bcf	3,6	;RP1=0, select bank1
  2119     15D1  00C8               	movwf	(efgtoa@g+3)^(0+128)
  2120     15D2  1283               	bcf	3,5	;RP0=0, select bank0
  2121     15D3  1303               	bcf	3,6	;RP1=0, select bank0
  2122     15D4  0848               	movf	efgtoa@f+2,w
  2123     15D5  1683               	bsf	3,5	;RP0=1, select bank1
  2124     15D6  1303               	bcf	3,6	;RP1=0, select bank1
  2125     15D7  00C7               	movwf	(efgtoa@g+2)^(0+128)
  2126     15D8  1283               	bcf	3,5	;RP0=0, select bank0
  2127     15D9  1303               	bcf	3,6	;RP1=0, select bank0
  2128     15DA  0847               	movf	efgtoa@f+1,w
  2129     15DB  1683               	bsf	3,5	;RP0=1, select bank1
  2130     15DC  1303               	bcf	3,6	;RP1=0, select bank1
  2131     15DD  00C6               	movwf	(efgtoa@g+1)^(0+128)
  2132     15DE  1283               	bcf	3,5	;RP0=0, select bank0
  2133     15DF  1303               	bcf	3,6	;RP1=0, select bank0
  2134     15E0  0846               	movf	efgtoa@f,w
  2135     15E1  1683               	bsf	3,5	;RP0=1, select bank1
  2136     15E2  1303               	bcf	3,6	;RP1=0, select bank1
  2137     15E3  00C5               	movwf	efgtoa@g^(0+128)
  2138     15E4                     l2772:
  2139                           
  2140                           ;C:\Program Files\Microchip\xc8\v2.45\pic\sources\c99\common\doprnt.c: 597:     if (g.f 
      +                          < 0.0) {
  2141     15E4  0848               	movf	(efgtoa@g+3)^(0+128),w
  2142     15E5  1283               	bcf	3,5	;RP0=0, select bank0
  2143     15E6  1303               	bcf	3,6	;RP1=0, select bank0
  2144     15E7  00BD               	movwf	___flge@ff1+3
  2145     15E8  1683               	bsf	3,5	;RP0=1, select bank1
  2146     15E9  1303               	bcf	3,6	;RP1=0, select bank1
  2147     15EA  0847               	movf	(efgtoa@g+2)^(0+128),w
  2148     15EB  1283               	bcf	3,5	;RP0=0, select bank0
  2149     15EC  1303               	bcf	3,6	;RP1=0, select bank0
  2150     15ED  00BC               	movwf	___flge@ff1+2
  2151     15EE  1683               	bsf	3,5	;RP0=1, select bank1
  2152     15EF  1303               	bcf	3,6	;RP1=0, select bank1
  2153     15F0  0846               	movf	(efgtoa@g+1)^(0+128),w
  2154     15F1  1283               	bcf	3,5	;RP0=0, select bank0
  2155     15F2  1303               	bcf	3,6	;RP1=0, select bank0
  2156     15F3  00BB               	movwf	___flge@ff1+1
  2157     15F4  1683               	bsf	3,5	;RP0=1, select bank1
  2158     15F5  1303               	bcf	3,6	;RP1=0, select bank1
  2159     15F6  0845               	movf	efgtoa@g^(0+128),w
  2160     15F7  1283               	bcf	3,5	;RP0=0, select bank0
  2161     15F8  1303               	bcf	3,6	;RP1=0, select bank0
  2162     15F9  00BA               	movwf	___flge@ff1
  2163     15FA  3000               	movlw	0
  2164     15FB  00C1               	movwf	___flge@ff2+3
  2165     15FC  3000               	movlw	0
  2166     15FD  00C0               	movwf	___flge@ff2+2
  2167     15FE  3000               	movlw	0
  2168     15FF  00BF               	movwf	___flge@ff2+1
  2169     1600  3000               	movlw	0
  2170     1601  00BE               	movwf	___flge@ff2
  2171     1602  160A  118A  2367  160A  118A  	fcall	___flge
  2172     1607  1803               	btfsc	3,0
  2173     1608  2E0A               	goto	u4041
  2174     1609  2E0B               	goto	u4040
  2175     160A                     u4041:
  2176     160A  2E26               	goto	l2778
  2177     160B                     u4040:
  2178     160B                     l2774:
  2179                           
  2180                           ;C:\Program Files\Microchip\xc8\v2.45\pic\sources\c99\common\doprnt.c: 598:         sign
      +                           = 1;
  2181     160B  1683               	bsf	3,5	;RP0=1, select bank1
  2182     160C  1303               	bcf	3,6	;RP1=0, select bank1
  2183     160D  01C2               	clrf	efgtoa@sign^(0+128)
  2184     160E  0AC2               	incf	efgtoa@sign^(0+128),f
  2185     160F                     l2776:
  2186                           
  2187                           ;C:\Program Files\Microchip\xc8\v2.45\pic\sources\c99\common\doprnt.c: 599:         g.f 
      +                          = -g.f;
  2188     160F  0848               	movf	(efgtoa@g+3)^(0+128),w
  2189     1610  00F3               	movwf	___flneg@f1+3
  2190     1611  0847               	movf	(efgtoa@g+2)^(0+128),w
  2191     1612  00F2               	movwf	___flneg@f1+2
  2192     1613  0846               	movf	(efgtoa@g+1)^(0+128),w
  2193     1614  00F1               	movwf	___flneg@f1+1
  2194     1615  0845               	movf	efgtoa@g^(0+128),w
  2195     1616  00F0               	movwf	___flneg@f1
  2196     1617  120A  158A  2001  160A  118A  	fcall	___flneg
  2197     161C  0873               	movf	?___flneg+3,w
  2198     161D  1683               	bsf	3,5	;RP0=1, select bank1
  2199     161E  1303               	bcf	3,6	;RP1=0, select bank1
  2200     161F  00C8               	movwf	(efgtoa@g+3)^(0+128)
  2201     1620  0872               	movf	?___flneg+2,w
  2202     1621  00C7               	movwf	(efgtoa@g+2)^(0+128)
  2203     1622  0871               	movf	?___flneg+1,w
  2204     1623  00C6               	movwf	(efgtoa@g+1)^(0+128)
  2205     1624  0870               	movf	?___flneg,w
  2206     1625  00C5               	movwf	efgtoa@g^(0+128)
  2207     1626                     l2778:
  2208                           
  2209                           ;C:\Program Files\Microchip\xc8\v2.45\pic\sources\c99\common\doprnt.c: 603:     n = 0;
  2210     1626  1683               	bsf	3,5	;RP0=1, select bank1
  2211     1627  1303               	bcf	3,6	;RP1=0, select bank1
  2212     1628  01C3               	clrf	efgtoa@n^(0+128)
  2213     1629  01C4               	clrf	(efgtoa@n+1)^(0+128)
  2214     162A                     l2780:
  2215                           
  2216                           ;C:\Program Files\Microchip\xc8\v2.45\pic\sources\c99\common\doprnt.c: 604:     w = widt
      +                          h;
  2217     162A  1283               	bcf	3,5	;RP0=0, select bank0
  2218     162B  1303               	bcf	3,6	;RP1=0, select bank0
  2219     162C  0869               	movf	_width+1,w
  2220     162D  1683               	bsf	3,5	;RP0=1, select bank1
  2221     162E  1303               	bcf	3,6	;RP1=0, select bank1
  2222     162F  00B3               	movwf	(efgtoa@w+1)^(0+128)
  2223     1630  1283               	bcf	3,5	;RP0=0, select bank0
  2224     1631  1303               	bcf	3,6	;RP1=0, select bank0
  2225     1632  0868               	movf	_width,w
  2226     1633  1683               	bsf	3,5	;RP0=1, select bank1
  2227     1634  1303               	bcf	3,6	;RP1=0, select bank1
  2228     1635  00B2               	movwf	efgtoa@w^(0+128)
  2229     1636                     l2782:
  2230                           
  2231                           ;C:\Program Files\Microchip\xc8\v2.45\pic\sources\c99\common\doprnt.c: 605:     if (sign
  2232     1636  0842               	movf	efgtoa@sign^(0+128),w
  2233     1637  1903               	btfsc	3,2
  2234     1638  2E3A               	goto	u4051
  2235     1639  2E3B               	goto	u4050
  2236     163A                     u4051:
  2237     163A  2E4B               	goto	l2790
  2238     163B                     u4050:
  2239     163B                     l2784:
  2240                           
  2241                           ;C:\Program Files\Microchip\xc8\v2.45\pic\sources\c99\common\doprnt.c: 609:    ) {;C:\Pr
      +                          ogram Files\Microchip\xc8\v2.45\pic\sources\c99\common\doprnt.c: 610:   sign = sign ? '-
      +                          ' : '+';
  2242     163B  0842               	movf	efgtoa@sign^(0+128),w
  2243     163C  1D03               	btfss	3,2
  2244     163D  2E3F               	goto	u4061
  2245     163E  2E40               	goto	u4060
  2246     163F                     u4061:
  2247     163F  2E45               	goto	l2788
  2248     1640                     u4060:
  2249     1640                     l2786:
  2250     1640  302B               	movlw	43
  2251     1641  00A6               	movwf	_efgtoa$712^(0+128)
  2252     1642  3000               	movlw	0
  2253     1643  00A7               	movwf	(_efgtoa$712^(0+128)+1)
  2254     1644  2E49               	goto	l643
  2255     1645                     l2788:
  2256     1645  302D               	movlw	45
  2257     1646  00A6               	movwf	_efgtoa$712^(0+128)
  2258     1647  3000               	movlw	0
  2259     1648  00A7               	movwf	(_efgtoa$712^(0+128)+1)
  2260     1649                     l643:
  2261     1649  0826               	movf	_efgtoa$712^(0+128),w
  2262     164A  00C2               	movwf	efgtoa@sign^(0+128)
  2263     164B                     l2790:
  2264                           
  2265                           ;C:\Program Files\Microchip\xc8\v2.45\pic\sources\c99\common\doprnt.c: 619:     if (( __
      +                          fpclassifyf(g.f) == 1 )) {
  2266     164B  0848               	movf	(efgtoa@g+3)^(0+128),w
  2267     164C  00F3               	movwf	___fpclassifyf@x+3
  2268     164D  0847               	movf	(efgtoa@g+2)^(0+128),w
  2269     164E  00F2               	movwf	___fpclassifyf@x+2
  2270     164F  0846               	movf	(efgtoa@g+1)^(0+128),w
  2271     1650  00F1               	movwf	___fpclassifyf@x+1
  2272     1651  0845               	movf	efgtoa@g^(0+128),w
  2273     1652  00F0               	movwf	___fpclassifyf@x
  2274     1653  160A  118A  22DA  160A  118A  	fcall	___fpclassifyf
  2275     1658  0370               	decf	?___fpclassifyf,w
  2276     1659  0471               	iorwf	?___fpclassifyf+1,w
  2277     165A  1D03               	btfss	3,2
  2278     165B  2E5D               	goto	u4071
  2279     165C  2E5E               	goto	u4070
  2280     165D                     u4071:
  2281     165D  2E95               	goto	l2804
  2282     165E                     u4070:
  2283     165E                     l2792:
  2284                           
  2285                           ;C:\Program Files\Microchip\xc8\v2.45\pic\sources\c99\common\doprnt.c: 620:   if (sign) 
      +                          {
  2286     165E  1683               	bsf	3,5	;RP0=1, select bank1
  2287     165F  1303               	bcf	3,6	;RP1=0, select bank1
  2288     1660  0842               	movf	efgtoa@sign^(0+128),w
  2289     1661  1903               	btfsc	3,2
  2290     1662  2E64               	goto	u4081
  2291     1663  2E65               	goto	u4080
  2292     1664                     u4081:
  2293     1664  2E75               	goto	l2796
  2294     1665                     u4080:
  2295     1665                     l2794:
  2296                           
  2297                           ;C:\Program Files\Microchip\xc8\v2.45\pic\sources\c99\common\doprnt.c: 621:    dbuf[0] =
      +                           sign;
  2298     1665  0842               	movf	efgtoa@sign^(0+128),w
  2299     1666  1683               	bsf	3,5	;RP0=1, select bank3
  2300     1667  1703               	bsf	3,6	;RP1=1, select bank3
  2301     1668  0098               	movwf	_dbuf^(0+384)
  2302                           
  2303                           ;C:\Program Files\Microchip\xc8\v2.45\pic\sources\c99\common\doprnt.c: 622:    w--;
  2304     1669  30FF               	movlw	255
  2305     166A  1683               	bsf	3,5	;RP0=1, select bank1
  2306     166B  1303               	bcf	3,6	;RP1=0, select bank1
  2307     166C  07B2               	addwf	efgtoa@w^(0+128),f
  2308     166D  1803               	skipnc
  2309     166E  0AB3               	incf	(efgtoa@w+1)^(0+128),f
  2310     166F  30FF               	movlw	255
  2311     1670  07B3               	addwf	(efgtoa@w+1)^(0+128),f
  2312                           
  2313                           ;C:\Program Files\Microchip\xc8\v2.45\pic\sources\c99\common\doprnt.c: 623:    n = 1;
  2314     1671  3001               	movlw	1
  2315     1672  00C3               	movwf	efgtoa@n^(0+128)
  2316     1673  3000               	movlw	0
  2317     1674  00C4               	movwf	(efgtoa@n^(0+128)+1)
  2318     1675                     l2796:
  2319                           
  2320                           ;C:\Program Files\Microchip\xc8\v2.45\pic\sources\c99\common\doprnt.c: 631:   {;C:\Progr
      +                          am Files\Microchip\xc8\v2.45\pic\sources\c99\common\doprnt.c: 632:             strcpy(&d
      +                          buf[n], "inf");
  2321     1675  3010               	movlw	(low ((STR_3-__stringbase)| (0+32768)))& (0+255)
  2322     1676  00F0               	movwf	strcpy@src
  2323     1677  0843               	movf	efgtoa@n^(0+128),w
  2324     1678  3E98               	addlw	(low (_dbuf| (0+256)))& (0+255)
  2325     1679  160A  158A  27A5  160A  118A  	fcall	_strcpy
  2326     167E                     l2798:
  2327                           
  2328                           ;C:\Program Files\Microchip\xc8\v2.45\pic\sources\c99\common\doprnt.c: 633:         };C:
      +                          \Program Files\Microchip\xc8\v2.45\pic\sources\c99\common\doprnt.c: 634:         w -= ((
      +                          sizeof("inf")/sizeof("inf"[0]))-1);
  2329     167E  30FD               	movlw	253
  2330     167F  1683               	bsf	3,5	;RP0=1, select bank1
  2331     1680  1303               	bcf	3,6	;RP1=0, select bank1
  2332     1681  07B2               	addwf	efgtoa@w^(0+128),f
  2333     1682  1803               	skipnc
  2334     1683  0AB3               	incf	(efgtoa@w+1)^(0+128),f
  2335     1684  30FF               	movlw	255
  2336     1685  07B3               	addwf	(efgtoa@w+1)^(0+128),f
  2337     1686                     l2800:
  2338                           
  2339                           ;C:\Program Files\Microchip\xc8\v2.45\pic\sources\c99\common\doprnt.c: 635:         retu
      +                          rn (void) pad(fp, &dbuf[0], w);
  2340     1686  3098               	movlw	(low (_dbuf| (0+256)))& (0+255)
  2341     1687  00FB               	movwf	pad@buf
  2342     1688  0833               	movf	(efgtoa@w+1)^(0+128),w
  2343     1689  00FD               	movwf	pad@p+1
  2344     168A  0832               	movf	efgtoa@w^(0+128),w
  2345     168B  00FC               	movwf	pad@p
  2346     168C  082F               	movf	efgtoa@fp^(0+128),w
  2347     168D  160A  118A  21A4  160A  118A  	fcall	_pad
  2348     1692                     L1:
  2349     1692  120A  118A  2FEB   	goto	l646
  2350     1695                     l2804:
  2351                           
  2352                           ;C:\Program Files\Microchip\xc8\v2.45\pic\sources\c99\common\doprnt.c: 637:     if (( __
      +                          fpclassifyf(g.f) == 0 )) {
  2353     1695  1683               	bsf	3,5	;RP0=1, select bank1
  2354     1696  1303               	bcf	3,6	;RP1=0, select bank1
  2355     1697  0848               	movf	(efgtoa@g+3)^(0+128),w
  2356     1698  00F3               	movwf	___fpclassifyf@x+3
  2357     1699  0847               	movf	(efgtoa@g+2)^(0+128),w
  2358     169A  00F2               	movwf	___fpclassifyf@x+2
  2359     169B  0846               	movf	(efgtoa@g+1)^(0+128),w
  2360     169C  00F1               	movwf	___fpclassifyf@x+1
  2361     169D  0845               	movf	efgtoa@g^(0+128),w
  2362     169E  00F0               	movwf	___fpclassifyf@x
  2363     169F  160A  118A  22DA  160A  118A  	fcall	___fpclassifyf
  2364     16A4  0870               	movf	?___fpclassifyf,w
  2365     16A5  0471               	iorwf	?___fpclassifyf+1,w
  2366     16A6  1D03               	btfss	3,2
  2367     16A7  2EA9               	goto	u4091
  2368     16A8  2EAC               	goto	u4090
  2369     16A9                     u4091:
  2370     16A9  120A  118A  28ED   	goto	l2818
  2371     16AC                     u4090:
  2372     16AC                     l2806:
  2373                           
  2374                           ;C:\Program Files\Microchip\xc8\v2.45\pic\sources\c99\common\doprnt.c: 638:   if (sign) 
      +                          {
  2375     16AC  1683               	bsf	3,5	;RP0=1, select bank1
  2376     16AD  1303               	bcf	3,6	;RP1=0, select bank1
  2377     16AE  0842               	movf	efgtoa@sign^(0+128),w
  2378     16AF  1903               	btfsc	3,2
  2379     16B0  2EB2               	goto	u4101
  2380     16B1  2EB3               	goto	u4100
  2381     16B2                     u4101:
  2382     16B2  2EC3               	goto	l2810
  2383     16B3                     u4100:
  2384     16B3                     l2808:
  2385                           
  2386                           ;C:\Program Files\Microchip\xc8\v2.45\pic\sources\c99\common\doprnt.c: 639:    dbuf[0] =
      +                           sign;
  2387     16B3  0842               	movf	efgtoa@sign^(0+128),w
  2388     16B4  1683               	bsf	3,5	;RP0=1, select bank3
  2389     16B5  1703               	bsf	3,6	;RP1=1, select bank3
  2390     16B6  0098               	movwf	_dbuf^(0+384)
  2391                           
  2392                           ;C:\Program Files\Microchip\xc8\v2.45\pic\sources\c99\common\doprnt.c: 640:    w--;
  2393     16B7  30FF               	movlw	255
  2394     16B8  1683               	bsf	3,5	;RP0=1, select bank1
  2395     16B9  1303               	bcf	3,6	;RP1=0, select bank1
  2396     16BA  07B2               	addwf	efgtoa@w^(0+128),f
  2397     16BB  1803               	skipnc
  2398     16BC  0AB3               	incf	(efgtoa@w+1)^(0+128),f
  2399     16BD  30FF               	movlw	255
  2400     16BE  07B3               	addwf	(efgtoa@w+1)^(0+128),f
  2401                           
  2402                           ;C:\Program Files\Microchip\xc8\v2.45\pic\sources\c99\common\doprnt.c: 641:    n = 1;
  2403     16BF  3001               	movlw	1
  2404     16C0  00C3               	movwf	efgtoa@n^(0+128)
  2405     16C1  3000               	movlw	0
  2406     16C2  00C4               	movwf	(efgtoa@n^(0+128)+1)
  2407     16C3                     l2810:
  2408                           
  2409                           ;C:\Program Files\Microchip\xc8\v2.45\pic\sources\c99\common\doprnt.c: 649:   {;C:\Progr
      +                          am Files\Microchip\xc8\v2.45\pic\sources\c99\common\doprnt.c: 650:             strcpy(&d
      +                          buf[n], "nan");
  2410     16C3  3014               	movlw	(low ((STR_6-__stringbase)| (0+32768)))& (0+255)
  2411     16C4  00F0               	movwf	strcpy@src
  2412     16C5  0843               	movf	efgtoa@n^(0+128),w
  2413     16C6  3E98               	addlw	(low (_dbuf| (0+256)))& (0+255)
  2414     16C7  160A  158A  27A5  160A  118A  	fcall	_strcpy
  2415     16CC                     l2812:
  2416                           
  2417                           ;C:\Program Files\Microchip\xc8\v2.45\pic\sources\c99\common\doprnt.c: 651:         };C:
      +                          \Program Files\Microchip\xc8\v2.45\pic\sources\c99\common\doprnt.c: 652:         w -= ((
      +                          sizeof("nan")/sizeof("nan"[0]))-1);
  2418     16CC  30FD               	movlw	253
  2419     16CD  1683               	bsf	3,5	;RP0=1, select bank1
  2420     16CE  1303               	bcf	3,6	;RP1=0, select bank1
  2421     16CF  07B2               	addwf	efgtoa@w^(0+128),f
  2422     16D0  1803               	skipnc
  2423     16D1  0AB3               	incf	(efgtoa@w+1)^(0+128),f
  2424     16D2  30FF               	movlw	255
  2425     16D3  07B3               	addwf	(efgtoa@w+1)^(0+128),f
  2426     16D4                     l2814:
  2427                           
  2428                           ;C:\Program Files\Microchip\xc8\v2.45\pic\sources\c99\common\doprnt.c: 653:         retu
      +                          rn (void) pad(fp, &dbuf[0], w);
  2429     16D4  3098               	movlw	(low (_dbuf| (0+256)))& (0+255)
  2430     16D5  00FB               	movwf	pad@buf
  2431     16D6  0833               	movf	(efgtoa@w+1)^(0+128),w
  2432     16D7  00FD               	movwf	pad@p+1
  2433     16D8  0832               	movf	efgtoa@w^(0+128),w
  2434     16D9  00FC               	movwf	pad@p
  2435     16DA  082F               	movf	efgtoa@fp^(0+128),w
  2436     16DB  160A  118A  21A4  160A  118A  	fcall	_pad
  2437     16E0  2E92               	goto	L1
  2438                           
  2439                           	psect	text7
  2440     1FA5                     __ptext7:	
  2441 ;; *************** function _strcpy *****************
  2442 ;; Defined at:
  2443 ;;		line 3 in file "C:\Program Files\Microchip\xc8\v2.45\pic\sources\c99\common\strcpy.c"
  2444 ;; Parameters:    Size  Location     Type
  2445 ;;  dest            1    wreg     PTR unsigned char 
  2446 ;;		 -> dbuf(80), 
  2447 ;;  src             1    0[COMMON] PTR const unsigned char 
  2448 ;;		 -> STR_6(4), STR_3(4), 
  2449 ;; Auto vars:     Size  Location     Type
  2450 ;;  dest            1    2[COMMON] PTR unsigned char 
  2451 ;;		 -> dbuf(80), 
  2452 ;;  d               1    1[COMMON] PTR unsigned char 
  2453 ;;		 -> dbuf(80), 
  2454 ;; Return value:  Size  Location     Type
  2455 ;;                  1    wreg      PTR unsigned char 
  2456 ;; Registers used:
  2457 ;;		wreg, fsr0l, fsr0h, status,2, status,0, btemp+1, pclath
  2458 ;; Tracked objects:
  2459 ;;		On entry : 0/0
  2460 ;;		On exit  : 0/0
  2461 ;;		Unchanged: 0/0
  2462 ;; Data sizes:     COMMON   BANK0   BANK1   BANK3   BANK2
  2463 ;;      Params:         1       0       0       0       0
  2464 ;;      Locals:         2       0       0       0       0
  2465 ;;      Temps:          0       0       0       0       0
  2466 ;;      Totals:         3       0       0       0       0
  2467 ;;Total ram usage:        3 bytes
  2468 ;; Hardware stack levels used: 2
  2469 ;; This function calls:
  2470 ;;		Nothing
  2471 ;; This function is called by:
  2472 ;;		_efgtoa
  2473 ;; This function uses a non-reentrant model
  2474 ;;
  2475                           
  2476     1FA5                     _strcpy:	
  2477                           ;psect for function _strcpy
  2478                           
  2479                           
  2480                           ;incstack = 0
  2481                           ; Regs used in _strcpy: [wreg-fsr0h+status,2+status,0+btemp+1+pclath]
  2482                           ;strcpy@dest stored from wreg
  2483     1FA5  00F2               	movwf	strcpy@dest
  2484     1FA6                     l2716:
  2485     1FA6  0872               	movf	strcpy@dest,w
  2486     1FA7  00F1               	movwf	strcpy@d
  2487     1FA8                     l2718:
  2488     1FA8  3001               	movlw	1
  2489     1FA9  07F0               	addwf	strcpy@src,f
  2490     1FAA  30FF               	movlw	-1
  2491     1FAB  0770               	addwf	strcpy@src,w
  2492     1FAC  0084               	movwf	4
  2493     1FAD  160A  118A  200A  160A  158A  	fcall	stringdir
  2494     1FB2  00FF               	movwf	btemp+1
  2495     1FB3  0871               	movf	strcpy@d,w
  2496     1FB4  0084               	movwf	4
  2497     1FB5  3001               	movlw	1
  2498     1FB6  07F1               	addwf	strcpy@d,f
  2499     1FB7  087F               	movf	btemp+1,w
  2500     1FB8  1783               	bsf	3,7	;select IRP bank2
  2501     1FB9  0080               	movwf	0
  2502     1FBA  0800               	movf	0,w
  2503     1FBB  1D03               	btfss	3,2
  2504     1FBC  2FBE               	goto	u3891
  2505     1FBD  2FBF               	goto	u3890
  2506     1FBE                     u3891:
  2507     1FBE  2FA8               	goto	l2718
  2508     1FBF                     u3890:
  2509     1FBF                     l788:
  2510     1FBF  0008               	return
  2511     1FC0                     __end_of_strcpy:
  2512                           
  2513                           	psect	text8
  2514     11A4                     __ptext8:	
  2515 ;; *************** function _pad *****************
  2516 ;; Defined at:
  2517 ;;		line 193 in file "C:\Program Files\Microchip\xc8\v2.45\pic\sources\c99\common\doprnt.c"
  2518 ;; Parameters:    Size  Location     Type
  2519 ;;  fp              1    wreg     PTR struct _IO_FILE
  2520 ;;		 -> sprintf@f(11), 
  2521 ;;  buf             1   11[COMMON] PTR unsigned char 
  2522 ;;		 -> dbuf(80), 
  2523 ;;  p               2   12[COMMON] int 
  2524 ;; Auto vars:     Size  Location     Type
  2525 ;;  fp              1    7[BANK0 ] PTR struct _IO_FILE
  2526 ;;		 -> sprintf@f(11), 
  2527 ;;  i               2    5[BANK0 ] int 
  2528 ;; Return value:  Size  Location     Type
  2529 ;;                  1    wreg      void 
  2530 ;; Registers used:
  2531 ;;		wreg, fsr0l, fsr0h, status,2, status,0, pclath, cstack
  2532 ;; Tracked objects:
  2533 ;;		On entry : 0/0
  2534 ;;		On exit  : 0/0
  2535 ;;		Unchanged: 0/0
  2536 ;; Data sizes:     COMMON   BANK0   BANK1   BANK3   BANK2
  2537 ;;      Params:         3       0       0       0       0
  2538 ;;      Locals:         0       3       0       0       0
  2539 ;;      Temps:          0       1       0       0       0
  2540 ;;      Totals:         3       4       0       0       0
  2541 ;;Total ram usage:        7 bytes
  2542 ;; Hardware stack levels used: 1
  2543 ;; Hardware stack levels required when called: 3
  2544 ;; This function calls:
  2545 ;;		_fputc
  2546 ;;		_fputs
  2547 ;; This function is called by:
  2548 ;;		_efgtoa
  2549 ;; This function uses a non-reentrant model
  2550 ;;
  2551                           
  2552     11A4                     _pad:	
  2553                           ;psect for function _pad
  2554                           
  2555                           
  2556                           ;incstack = 0
  2557                           ; Regs used in _pad: [wreg-fsr0h+status,2+status,0+pclath+cstack]
  2558                           ;pad@fp stored from wreg
  2559     11A4  1283               	bcf	3,5	;RP0=0, select bank0
  2560     11A5  1303               	bcf	3,6	;RP1=0, select bank0
  2561     11A6  00A7               	movwf	pad@fp
  2562     11A7                     l2680:
  2563                           
  2564                           ;C:\Program Files\Microchip\xc8\v2.45\pic\sources\c99\common\doprnt.c: 193: static void 
      +                          pad(FILE *fp, char *buf, int p);C:\Program Files\Microchip\xc8\v2.45\pic\sources\c99\com
      +                          mon\doprnt.c: 194: {;C:\Program Files\Microchip\xc8\v2.45\pic\sources\c99\common\doprnt.
      +                          c: 195:     int i;;C:\Program Files\Microchip\xc8\v2.45\pic\sources\c99\common\doprnt.c:
      +                           205:  if (p < 0) {
  2565     11A7  1FFD               	btfss	pad@p+1,7
  2566     11A8  29AA               	goto	u3791
  2567     11A9  29AB               	goto	u3790
  2568     11AA                     u3791:
  2569     11AA  29AD               	goto	l631
  2570     11AB                     u3790:
  2571     11AB                     l2682:
  2572                           
  2573                           ;C:\Program Files\Microchip\xc8\v2.45\pic\sources\c99\common\doprnt.c: 206:   p = 0;
  2574     11AB  01FC               	clrf	pad@p
  2575     11AC  01FD               	clrf	pad@p+1
  2576     11AD                     l631:	
  2577                           ;C:\Program Files\Microchip\xc8\v2.45\pic\sources\c99\common\doprnt.c: 207:  }
  2578                           
  2579                           
  2580                           ;C:\Program Files\Microchip\xc8\v2.45\pic\sources\c99\common\doprnt.c: 208:     i = 0;
  2581     11AD  01A5               	clrf	pad@i
  2582     11AE  01A6               	clrf	pad@i+1
  2583                           
  2584                           ;C:\Program Files\Microchip\xc8\v2.45\pic\sources\c99\common\doprnt.c: 209:     while (i
      +                           < p) {
  2585     11AF  29C5               	goto	l2688
  2586     11B0                     l2684:
  2587                           
  2588                           ;C:\Program Files\Microchip\xc8\v2.45\pic\sources\c99\common\doprnt.c: 210:         fput
      +                          c(' ', fp);
  2589     11B0  3020               	movlw	32
  2590     11B1  00F0               	movwf	fputc@c
  2591     11B2  3000               	movlw	0
  2592     11B3  00F1               	movwf	fputc@c+1
  2593     11B4  1283               	bcf	3,5	;RP0=0, select bank0
  2594     11B5  1303               	bcf	3,6	;RP1=0, select bank0
  2595     11B6  0827               	movf	pad@fp,w
  2596     11B7  00F2               	movwf	fputc@fp
  2597     11B8  160A  118A  222C  160A  118A  	fcall	_fputc
  2598     11BD                     l2686:
  2599                           
  2600                           ;C:\Program Files\Microchip\xc8\v2.45\pic\sources\c99\common\doprnt.c: 211:         ++i;
  2601     11BD  3001               	movlw	1
  2602     11BE  1283               	bcf	3,5	;RP0=0, select bank0
  2603     11BF  1303               	bcf	3,6	;RP1=0, select bank0
  2604     11C0  07A5               	addwf	pad@i,f
  2605     11C1  1803               	skipnc
  2606     11C2  0AA6               	incf	pad@i+1,f
  2607     11C3  3000               	movlw	0
  2608     11C4  07A6               	addwf	pad@i+1,f
  2609     11C5                     l2688:
  2610                           
  2611                           ;C:\Program Files\Microchip\xc8\v2.45\pic\sources\c99\common\doprnt.c: 209:     while (i
      +                           < p) {
  2612     11C5  0826               	movf	pad@i+1,w
  2613     11C6  3A80               	xorlw	128
  2614     11C7  00A4               	movwf	??_pad
  2615     11C8  087D               	movf	pad@p+1,w
  2616     11C9  3A80               	xorlw	128
  2617     11CA  0224               	subwf	??_pad,w
  2618     11CB  1D03               	skipz
  2619     11CC  29CF               	goto	u3805
  2620     11CD  087C               	movf	pad@p,w
  2621     11CE  0225               	subwf	pad@i,w
  2622     11CF                     u3805:
  2623     11CF  1C03               	skipc
  2624     11D0  29D2               	goto	u3801
  2625     11D1  29D3               	goto	u3800
  2626     11D2                     u3801:
  2627     11D2  29B0               	goto	l2684
  2628     11D3                     u3800:
  2629     11D3                     l2690:
  2630                           
  2631                           ;C:\Program Files\Microchip\xc8\v2.45\pic\sources\c99\common\doprnt.c: 218:         fput
      +                          s((const char *)buf, fp);
  2632     11D3  1283               	bcf	3,5	;RP0=0, select bank0
  2633     11D4  1303               	bcf	3,6	;RP1=0, select bank0
  2634     11D5  0827               	movf	pad@fp,w
  2635     11D6  00F8               	movwf	fputs@fp
  2636     11D7  087B               	movf	pad@buf,w
  2637     11D8  160A  118A  20C6  160A  118A  	fcall	_fputs
  2638     11DD                     l635:
  2639     11DD  0008               	return
  2640     11DE                     __end_of_pad:
  2641                           
  2642                           	psect	text9
  2643     10C6                     __ptext9:	
  2644 ;; *************** function _fputs *****************
  2645 ;; Defined at:
  2646 ;;		line 8 in file "C:\Program Files\Microchip\xc8\v2.45\pic\sources\c99\common\nf_fputs.c"
  2647 ;; Parameters:    Size  Location     Type
  2648 ;;  s               1    wreg     PTR const unsigned char 
  2649 ;;		 -> dbuf(80), 
  2650 ;;  fp              1    8[COMMON] PTR struct _IO_FILE
  2651 ;;		 -> sprintf@f(11), 
  2652 ;; Auto vars:     Size  Location     Type
  2653 ;;  s               1    3[BANK0 ] PTR const unsigned char 
  2654 ;;		 -> dbuf(80), 
  2655 ;;  i               2    1[BANK0 ] int 
  2656 ;;  c               1    0[BANK0 ] unsigned char 
  2657 ;; Return value:  Size  Location     Type
  2658 ;;                  2    8[COMMON] int 
  2659 ;; Registers used:
  2660 ;;		wreg, fsr0l, fsr0h, status,2, status,0, pclath, cstack
  2661 ;; Tracked objects:
  2662 ;;		On entry : 0/0
  2663 ;;		On exit  : 0/0
  2664 ;;		Unchanged: 0/0
  2665 ;; Data sizes:     COMMON   BANK0   BANK1   BANK3   BANK2
  2666 ;;      Params:         1       0       0       0       0
  2667 ;;      Locals:         0       4       0       0       0
  2668 ;;      Temps:          2       0       0       0       0
  2669 ;;      Totals:         3       4       0       0       0
  2670 ;;Total ram usage:        7 bytes
  2671 ;; Hardware stack levels used: 1
  2672 ;; Hardware stack levels required when called: 2
  2673 ;; This function calls:
  2674 ;;		_fputc
  2675 ;; This function is called by:
  2676 ;;		_pad
  2677 ;; This function uses a non-reentrant model
  2678 ;;
  2679                           
  2680     10C6                     _fputs:	
  2681                           ;psect for function _fputs
  2682                           
  2683                           
  2684                           ;incstack = 0
  2685                           ; Regs used in _fputs: [wreg-fsr0h+status,2+status,0+pclath+cstack]
  2686                           ;fputs@s stored from wreg
  2687     10C6  1283               	bcf	3,5	;RP0=0, select bank0
  2688     10C7  1303               	bcf	3,6	;RP1=0, select bank0
  2689     10C8  00A3               	movwf	fputs@s
  2690     10C9                     l2286:
  2691     10C9  01A1               	clrf	fputs@i
  2692     10CA  01A2               	clrf	fputs@i+1
  2693     10CB  28E2               	goto	l2292
  2694     10CC                     l2288:
  2695     10CC  0820               	movf	fputs@c,w
  2696     10CD  00F9               	movwf	??_fputs
  2697     10CE  01FA               	clrf	??_fputs+1
  2698     10CF  0879               	movf	??_fputs,w
  2699     10D0  00F0               	movwf	fputc@c
  2700     10D1  087A               	movf	??_fputs+1,w
  2701     10D2  00F1               	movwf	fputc@c+1
  2702     10D3  0878               	movf	fputs@fp,w
  2703     10D4  00F2               	movwf	fputc@fp
  2704     10D5  160A  118A  222C  160A  118A  	fcall	_fputc
  2705     10DA                     l2290:
  2706     10DA  3001               	movlw	1
  2707     10DB  1283               	bcf	3,5	;RP0=0, select bank0
  2708     10DC  1303               	bcf	3,6	;RP1=0, select bank0
  2709     10DD  07A1               	addwf	fputs@i,f
  2710     10DE  1803               	skipnc
  2711     10DF  0AA2               	incf	fputs@i+1,f
  2712     10E0  3000               	movlw	0
  2713     10E1  07A2               	addwf	fputs@i+1,f
  2714     10E2                     l2292:
  2715     10E2  0821               	movf	fputs@i,w
  2716     10E3  0723               	addwf	fputs@s,w
  2717     10E4  00F9               	movwf	??_fputs
  2718     10E5  0879               	movf	??_fputs,w
  2719     10E6  0084               	movwf	4
  2720     10E7  1783               	bsf	3,7	;select IRP bank2
  2721     10E8  0800               	movf	0,w
  2722     10E9  00A0               	movwf	fputs@c
  2723     10EA  0820               	movf	fputs@c,w
  2724     10EB  1D03               	btfss	3,2
  2725     10EC  28EE               	goto	u2861
  2726     10ED  28EF               	goto	u2860
  2727     10EE                     u2861:
  2728     10EE  28CC               	goto	l2288
  2729     10EF                     u2860:
  2730     10EF                     l779:
  2731     10EF  0008               	return
  2732     10F0                     __end_of_fputs:
  2733                           
  2734                           	psect	text10
  2735     122C                     __ptext10:	
  2736 ;; *************** function _fputc *****************
  2737 ;; Defined at:
  2738 ;;		line 8 in file "C:\Program Files\Microchip\xc8\v2.45\pic\sources\c99\common\nf_fputc.c"
  2739 ;; Parameters:    Size  Location     Type
  2740 ;;  c               2    0[COMMON] int 
  2741 ;;  fp              1    2[COMMON] PTR struct _IO_FILE
  2742 ;;		 -> sprintf@f(11), 
  2743 ;; Auto vars:     Size  Location     Type
  2744 ;;		None
  2745 ;; Return value:  Size  Location     Type
  2746 ;;                  2    0[COMMON] int 
  2747 ;; Registers used:
  2748 ;;		wreg, fsr0l, fsr0h, status,2, status,0, pclath, cstack
  2749 ;; Tracked objects:
  2750 ;;		On entry : 0/0
  2751 ;;		On exit  : 0/0
  2752 ;;		Unchanged: 0/0
  2753 ;; Data sizes:     COMMON   BANK0   BANK1   BANK3   BANK2
  2754 ;;      Params:         3       0       0       0       0
  2755 ;;      Locals:         0       0       0       0       0
  2756 ;;      Temps:          5       0       0       0       0
  2757 ;;      Totals:         8       0       0       0       0
  2758 ;;Total ram usage:        8 bytes
  2759 ;; Hardware stack levels used: 1
  2760 ;; Hardware stack levels required when called: 1
  2761 ;; This function calls:
  2762 ;;		_putch
  2763 ;; This function is called by:
  2764 ;;		_pad
  2765 ;;		_vfpfcnvrt
  2766 ;;		_fputs
  2767 ;; This function uses a non-reentrant model
  2768 ;;
  2769                           
  2770     122C                     _fputc:	
  2771                           ;psect for function _fputc
  2772                           
  2773     122C                     l2058:	
  2774                           ;incstack = 0
  2775                           ; Regs used in _fputc: [wreg-fsr0h+status,2+status,0+pclath+cstack]
  2776                           
  2777     122C  0872               	movf	fputc@fp,w
  2778     122D  1903               	btfsc	3,2
  2779     122E  2A30               	goto	u2331
  2780     122F  2A31               	goto	u2330
  2781     1230                     u2331:
  2782     1230  2A36               	goto	l2062
  2783     1231                     u2330:
  2784     1231                     l2060:
  2785     1231  0872               	movf	fputc@fp,w
  2786     1232  1D03               	btfss	3,2
  2787     1233  2A35               	goto	u2341
  2788     1234  2A36               	goto	u2340
  2789     1235                     u2341:
  2790     1235  2A3D               	goto	l2064
  2791     1236                     u2340:
  2792     1236                     l2062:
  2793     1236  0870               	movf	fputc@c,w
  2794     1237  120A  118A  2004  160A  118A  	fcall	_putch
  2795     123C  2A81               	goto	l771
  2796     123D                     l2064:
  2797     123D  0872               	movf	fputc@fp,w
  2798     123E  3E09               	addlw	9
  2799     123F  0084               	movwf	4
  2800     1240  1383               	bcf	3,7	;select IRP bank0
  2801     1241  0800               	movf	0,w
  2802     1242  00F3               	movwf	??_fputc
  2803     1243  0A84               	incf	4,f
  2804     1244  0800               	movf	0,w
  2805     1245  00F4               	movwf	??_fputc+1
  2806     1246  0873               	movf	??_fputc,w
  2807     1247  0474               	iorwf	??_fputc+1,w
  2808     1248  1903               	btfsc	3,2
  2809     1249  2A4B               	goto	u2351
  2810     124A  2A4C               	goto	u2350
  2811     124B                     u2351:
  2812     124B  2A6A               	goto	l2068
  2813     124C                     u2350:
  2814     124C                     l2066:
  2815     124C  0872               	movf	fputc@fp,w
  2816     124D  3E09               	addlw	9
  2817     124E  0084               	movwf	4
  2818     124F  0800               	movf	0,w
  2819     1250  00F3               	movwf	??_fputc
  2820     1251  0A84               	incf	4,f
  2821     1252  0800               	movf	0,w
  2822     1253  00F4               	movwf	??_fputc+1
  2823     1254  0872               	movf	fputc@fp,w
  2824     1255  3E02               	addlw	2
  2825     1256  0084               	movwf	4
  2826     1257  0800               	movf	0,w
  2827     1258  00F5               	movwf	??_fputc+2
  2828     1259  0A84               	incf	4,f
  2829     125A  0800               	movf	0,w
  2830     125B  00F6               	movwf	??_fputc+3
  2831     125C  0876               	movf	??_fputc+3,w
  2832     125D  3A80               	xorlw	128
  2833     125E  00F7               	movwf	??_fputc+4
  2834     125F  0874               	movf	??_fputc+1,w
  2835     1260  3A80               	xorlw	128
  2836     1261  0277               	subwf	??_fputc+4,w
  2837     1262  1D03               	skipz
  2838     1263  2A66               	goto	u2365
  2839     1264  0873               	movf	??_fputc,w
  2840     1265  0275               	subwf	??_fputc+2,w
  2841     1266                     u2365:
  2842     1266  1803               	skipnc
  2843     1267  2A69               	goto	u2361
  2844     1268  2A6A               	goto	u2360
  2845     1269                     u2361:
  2846     1269  2A81               	goto	l771
  2847     126A                     u2360:
  2848     126A                     l2068:
  2849     126A  0872               	movf	fputc@fp,w
  2850     126B  3E02               	addlw	2
  2851     126C  0084               	movwf	4
  2852     126D  1383               	bcf	3,7	;select IRP bank0
  2853     126E  0800               	movf	0,w
  2854     126F  00F3               	movwf	??_fputc
  2855     1270  0872               	movf	fputc@fp,w
  2856     1271  0084               	movwf	4
  2857     1272  0800               	movf	0,w
  2858     1273  0773               	addwf	??_fputc,w
  2859     1274  00F4               	movwf	??_fputc+1
  2860     1275  0874               	movf	??_fputc+1,w
  2861     1276  0084               	movwf	4
  2862     1277  0870               	movf	fputc@c,w
  2863     1278  0080               	movwf	0
  2864     1279  0872               	movf	fputc@fp,w
  2865     127A  3E02               	addlw	2
  2866     127B  0084               	movwf	4
  2867     127C  3001               	movlw	1
  2868     127D  0780               	addwf	0,f
  2869     127E  0A84               	incf	4,f
  2870     127F  1803               	skipnc
  2871     1280  0A80               	incf	0,f
  2872     1281                     l771:
  2873     1281  0008               	return
  2874     1282                     __end_of_fputc:
  2875                           
  2876                           	psect	text11
  2877     0004                     __ptext11:	
  2878 ;; *************** function _putch *****************
  2879 ;; Defined at:
  2880 ;;		line 7 in file "C:\Program Files\Microchip\xc8\v2.45\pic\sources\c99\common\putch.c"
  2881 ;; Parameters:    Size  Location     Type
  2882 ;;  c               1    wreg     unsigned char 
  2883 ;; Auto vars:     Size  Location     Type
  2884 ;;  c               1    0[COMMON] unsigned char 
  2885 ;; Return value:  Size  Location     Type
  2886 ;;                  1    wreg      void 
  2887 ;; Registers used:
  2888 ;;		wreg
  2889 ;; Tracked objects:
  2890 ;;		On entry : 0/0
  2891 ;;		On exit  : 0/0
  2892 ;;		Unchanged: 0/0
  2893 ;; Data sizes:     COMMON   BANK0   BANK1   BANK3   BANK2
  2894 ;;      Params:         0       0       0       0       0
  2895 ;;      Locals:         0       0       0       0       0
  2896 ;;      Temps:          0       0       0       0       0
  2897 ;;      Totals:         0       0       0       0       0
  2898 ;;Total ram usage:        0 bytes
  2899 ;; Hardware stack levels used: 1
  2900 ;; This function calls:
  2901 ;;		Nothing
  2902 ;; This function is called by:
  2903 ;;		_fputc
  2904 ;; This function uses a non-reentrant model
  2905 ;;
  2906                           
  2907     0004                     _putch:	
  2908                           ;psect for function _putch
  2909                           
  2910     0004                     l782:	
  2911                           ;incstack = 0
  2912                           ; Regs used in _putch: [wreg]
  2913                           
  2914     0004  0008               	return
  2915     0005                     __end_of_putch:
  2916                           
  2917                           	psect	text12
  2918     1079                     __ptext12:	
  2919 ;; *************** function _memcpy *****************
  2920 ;; Defined at:
  2921 ;;		line 4 in file "C:\Program Files\Microchip\xc8\v2.45\pic\sources\c99\common\memcpy.c"
  2922 ;; Parameters:    Size  Location     Type
  2923 ;;  d1              1    wreg     PTR void 
  2924 ;;		 -> dbuf(80), 
  2925 ;;  s1              1    0[COMMON] PTR const void 
  2926 ;;		 -> dbuf(80), 
  2927 ;;  n               2    1[COMMON] unsigned int 
  2928 ;; Auto vars:     Size  Location     Type
  2929 ;;  d1              1    4[COMMON] PTR void 
  2930 ;;		 -> dbuf(80), 
  2931 ;;  s               1    6[COMMON] PTR const unsigned char 
  2932 ;;		 -> dbuf(80), 
  2933 ;;  d               1    5[COMMON] PTR unsigned char 
  2934 ;;		 -> dbuf(80), 
  2935 ;;  tmp             1    3[COMMON] unsigned char 
  2936 ;; Return value:  Size  Location     Type
  2937 ;;                  1    wreg      PTR void 
  2938 ;; Registers used:
  2939 ;;		wreg, fsr0l, fsr0h, status,2, status,0, btemp+1
  2940 ;; Tracked objects:
  2941 ;;		On entry : 0/0
  2942 ;;		On exit  : 0/0
  2943 ;;		Unchanged: 0/0
  2944 ;; Data sizes:     COMMON   BANK0   BANK1   BANK3   BANK2
  2945 ;;      Params:         3       0       0       0       0
  2946 ;;      Locals:         4       0       0       0       0
  2947 ;;      Temps:          0       0       0       0       0
  2948 ;;      Totals:         7       0       0       0       0
  2949 ;;Total ram usage:        7 bytes
  2950 ;; Hardware stack levels used: 1
  2951 ;; This function calls:
  2952 ;;		Nothing
  2953 ;; This function is called by:
  2954 ;;		_efgtoa
  2955 ;; This function uses a non-reentrant model
  2956 ;;
  2957                           
  2958     1079                     _memcpy:	
  2959                           ;psect for function _memcpy
  2960                           
  2961                           
  2962                           ;incstack = 0
  2963                           ; Regs used in _memcpy: [wreg-fsr0h+status,2+status,0+btemp+1]
  2964                           ;memcpy@d1 stored from wreg
  2965     1079  00F4               	movwf	memcpy@d1
  2966     107A                     l2758:
  2967     107A  0870               	movf	memcpy@s1,w
  2968     107B  00F6               	movwf	memcpy@s
  2969     107C  0874               	movf	memcpy@d1,w
  2970     107D  00F5               	movwf	memcpy@d
  2971     107E  2890               	goto	l2766
  2972     107F                     l2760:
  2973     107F  0876               	movf	memcpy@s,w
  2974     1080  0084               	movwf	4
  2975     1081  1783               	bsf	3,7	;select IRP bank2
  2976     1082  0800               	movf	0,w
  2977     1083  00F3               	movwf	memcpy@tmp
  2978     1084                     l2762:
  2979     1084  3001               	movlw	1
  2980     1085  00FF               	movwf	btemp+1
  2981     1086  087F               	movf	btemp+1,w
  2982     1087  07F6               	addwf	memcpy@s,f
  2983     1088                     l2764:
  2984     1088  0875               	movf	memcpy@d,w
  2985     1089  0084               	movwf	4
  2986     108A  0873               	movf	memcpy@tmp,w
  2987     108B  0080               	movwf	0
  2988     108C  3001               	movlw	1
  2989     108D  00FF               	movwf	btemp+1
  2990     108E  087F               	movf	btemp+1,w
  2991     108F  07F5               	addwf	memcpy@d,f
  2992     1090                     l2766:
  2993     1090  3001               	movlw	1
  2994     1091  02F1               	subwf	memcpy@n,f
  2995     1092  3000               	movlw	0
  2996     1093  1C03               	skipc
  2997     1094  03F2               	decf	memcpy@n+1,f
  2998     1095  02F2               	subwf	memcpy@n+1,f
  2999     1096  0A71               	incf	memcpy@n,w
  3000     1097  1D03               	skipz
  3001     1098  289D               	goto	u4031
  3002     1099  0A72               	incf	memcpy@n+1,w
  3003     109A  1D03               	btfss	3,2
  3004     109B  289D               	goto	u4031
  3005     109C  289E               	goto	u4030
  3006     109D                     u4031:
  3007     109D  287F               	goto	l2760
  3008     109E                     u4030:
  3009     109E                     l759:
  3010     109E  0008               	return
  3011     109F                     __end_of_memcpy:
  3012                           
  3013                           	psect	text13
  3014     1F90                     __ptext13:	
  3015 ;; *************** function _labs *****************
  3016 ;; Defined at:
  3017 ;;		line 1 in file "C:\Program Files\Microchip\xc8\v2.45\pic\sources\c99\common\labs.c"
  3018 ;; Parameters:    Size  Location     Type
  3019 ;;  a               4    0[COMMON] long 
  3020 ;; Auto vars:     Size  Location     Type
  3021 ;;		None
  3022 ;; Return value:  Size  Location     Type
  3023 ;;                  4    0[COMMON] long 
  3024 ;; Registers used:
  3025 ;;		wreg, status,2, status,0
  3026 ;; Tracked objects:
  3027 ;;		On entry : 0/0
  3028 ;;		On exit  : 0/0
  3029 ;;		Unchanged: 0/0
  3030 ;; Data sizes:     COMMON   BANK0   BANK1   BANK3   BANK2
  3031 ;;      Params:         4       0       0       0       0
  3032 ;;      Locals:         0       0       0       0       0
  3033 ;;      Temps:          0       0       0       0       0
  3034 ;;      Totals:         4       0       0       0       0
  3035 ;;Total ram usage:        4 bytes
  3036 ;; Hardware stack levels used: 1
  3037 ;; This function calls:
  3038 ;;		Nothing
  3039 ;; This function is called by:
  3040 ;;		_efgtoa
  3041 ;; This function uses a non-reentrant model
  3042 ;;
  3043                           
  3044     1F90                     _labs:	
  3045                           ;psect for function _labs
  3046                           
  3047     1F90                     l2720:	
  3048                           ;incstack = 0
  3049                           ; Regs used in _labs: [wreg+status,2+status,0]
  3050                           
  3051     1F90  1BF3               	btfsc	labs@a+3,7
  3052     1F91  2F93               	goto	u3901
  3053     1F92  2F94               	goto	u3900
  3054     1F93                     u3901:
  3055     1F93  2F95               	goto	l2724
  3056     1F94                     u3900:
  3057     1F94                     l2722:
  3058     1F94  2FA4               	goto	l753
  3059     1F95                     l2724:
  3060     1F95  0970               	comf	labs@a,w
  3061     1F96  00F0               	movwf	?_labs
  3062     1F97  0971               	comf	labs@a+1,w
  3063     1F98  00F1               	movwf	?_labs+1
  3064     1F99  0972               	comf	labs@a+2,w
  3065     1F9A  00F2               	movwf	?_labs+2
  3066     1F9B  0973               	comf	labs@a+3,w
  3067     1F9C  00F3               	movwf	?_labs+3
  3068     1F9D  0AF0               	incf	?_labs,f
  3069     1F9E  1903               	skipnz
  3070     1F9F  0AF1               	incf	?_labs+1,f
  3071     1FA0  1903               	skipnz
  3072     1FA1  0AF2               	incf	?_labs+2,f
  3073     1FA2  1903               	skipnz
  3074     1FA3  0AF3               	incf	?_labs+3,f
  3075     1FA4                     l753:
  3076     1FA4  0008               	return
  3077     1FA5                     __end_of_labs:
  3078                           
  3079                           	psect	text14
  3080     14B9                     __ptext14:	
  3081 ;; *************** function _floorf *****************
  3082 ;; Defined at:
  3083 ;;		line 3 in file "C:\Program Files\Microchip\xc8\v2.45\pic\sources\c99\common\floorf.c"
  3084 ;; Parameters:    Size  Location     Type
  3085 ;;  x               4   13[BANK0 ] float 
  3086 ;; Auto vars:     Size  Location     Type
  3087 ;;  u               4   29[BANK0 ] struct .
  3088 ;;  m               4   23[BANK0 ] unsigned long 
  3089 ;;  e               2   27[BANK0 ] int 
  3090 ;; Return value:  Size  Location     Type
  3091 ;;                  4   13[BANK0 ] float 
  3092 ;; Registers used:
  3093 ;;		wreg, status,2, status,0, btemp+1
  3094 ;; Tracked objects:
  3095 ;;		On entry : 0/0
  3096 ;;		On exit  : 0/0
  3097 ;;		Unchanged: 0/0
  3098 ;; Data sizes:     COMMON   BANK0   BANK1   BANK3   BANK2
  3099 ;;      Params:         0       4       0       0       0
  3100 ;;      Locals:         0      10       0       0       0
  3101 ;;      Temps:          0       6       0       0       0
  3102 ;;      Totals:         0      20       0       0       0
  3103 ;;Total ram usage:       20 bytes
  3104 ;; Hardware stack levels used: 1
  3105 ;; This function calls:
  3106 ;;		Nothing
  3107 ;; This function is called by:
  3108 ;;		_efgtoa
  3109 ;; This function uses a non-reentrant model
  3110 ;;
  3111                           
  3112     14B9                     _floorf:	
  3113                           ;psect for function _floorf
  3114                           
  3115     14B9                     l2728:	
  3116                           ;incstack = 0
  3117                           ; Regs used in _floorf: [wreg+status,2+status,0+btemp+1]
  3118                           
  3119     14B9  1683               	bsf	3,5	;RP0=1, select bank3
  3120     14BA  1703               	bsf	3,6	;RP1=1, select bank3
  3121     14BB  0813               	movf	(floorf@F521+3)^(0+384),w
  3122     14BC  1283               	bcf	3,5	;RP0=0, select bank0
  3123     14BD  1303               	bcf	3,6	;RP1=0, select bank0
  3124     14BE  00C0               	movwf	floorf@u+3
  3125     14BF  1683               	bsf	3,5	;RP0=1, select bank3
  3126     14C0  1703               	bsf	3,6	;RP1=1, select bank3
  3127     14C1  0812               	movf	(floorf@F521+2)^(0+384),w
  3128     14C2  1283               	bcf	3,5	;RP0=0, select bank0
  3129     14C3  1303               	bcf	3,6	;RP1=0, select bank0
  3130     14C4  00BF               	movwf	floorf@u+2
  3131     14C5  1683               	bsf	3,5	;RP0=1, select bank3
  3132     14C6  1703               	bsf	3,6	;RP1=1, select bank3
  3133     14C7  0811               	movf	(floorf@F521+1)^(0+384),w
  3134     14C8  1283               	bcf	3,5	;RP0=0, select bank0
  3135     14C9  1303               	bcf	3,6	;RP1=0, select bank0
  3136     14CA  00BE               	movwf	floorf@u+1
  3137     14CB  1683               	bsf	3,5	;RP0=1, select bank3
  3138     14CC  1703               	bsf	3,6	;RP1=1, select bank3
  3139     14CD  0810               	movf	floorf@F521^(0+384),w
  3140     14CE  1283               	bcf	3,5	;RP0=0, select bank0
  3141     14CF  1303               	bcf	3,6	;RP1=0, select bank0
  3142     14D0  00BD               	movwf	floorf@u
  3143     14D1  0830               	movf	floorf@x+3,w
  3144     14D2  00C0               	movwf	floorf@u+3
  3145     14D3  082F               	movf	floorf@x+2,w
  3146     14D4  00BF               	movwf	floorf@u+2
  3147     14D5  082E               	movf	floorf@x+1,w
  3148     14D6  00BE               	movwf	floorf@u+1
  3149     14D7  082D               	movf	floorf@x,w
  3150     14D8  00BD               	movwf	floorf@u
  3151     14D9                     l2730:
  3152     14D9  083D               	movf	floorf@u,w
  3153     14DA  00B1               	movwf	??_floorf
  3154     14DB  083E               	movf	floorf@u+1,w
  3155     14DC  00B2               	movwf	??_floorf+1
  3156     14DD  083F               	movf	floorf@u+2,w
  3157     14DE  00B3               	movwf	??_floorf+2
  3158     14DF  0840               	movf	floorf@u+3,w
  3159     14E0  00B4               	movwf	??_floorf+3
  3160     14E1  3017               	movlw	23
  3161     14E2                     u3915:
  3162     14E2  1003               	clrc
  3163     14E3  0CB4               	rrf	??_floorf+3,f
  3164     14E4  0CB3               	rrf	??_floorf+2,f
  3165     14E5  0CB2               	rrf	??_floorf+1,f
  3166     14E6  0CB1               	rrf	??_floorf,f
  3167     14E7                     u3910:
  3168     14E7  3EFF               	addlw	-1
  3169     14E8  1D03               	skipz
  3170     14E9  2CE2               	goto	u3915
  3171     14EA  30FF               	movlw	255
  3172     14EB  0531               	andwf	??_floorf,w
  3173     14EC  00B5               	movwf	??_floorf+4
  3174     14ED  3000               	movlw	0
  3175     14EE  0532               	andwf	??_floorf+1,w
  3176     14EF  00B6               	movwf	??_floorf+5
  3177     14F0  0835               	movf	??_floorf+4,w
  3178     14F1  3E81               	addlw	129
  3179     14F2  00BB               	movwf	floorf@e
  3180     14F3  0836               	movf	??_floorf+5,w
  3181     14F4  1803               	skipnc
  3182     14F5  3E01               	addlw	1
  3183     14F6  3EFF               	addlw	255
  3184     14F7  00BC               	movwf	floorf@e+1
  3185     14F8                     l2732:
  3186     14F8  083C               	movf	floorf@e+1,w
  3187     14F9  3A80               	xorlw	128
  3188     14FA  00FF               	movwf	btemp+1
  3189     14FB  3080               	movlw	128
  3190     14FC  027F               	subwf	btemp+1,w
  3191     14FD  1D03               	skipz
  3192     14FE  2D01               	goto	u3925
  3193     14FF  3017               	movlw	23
  3194     1500  023B               	subwf	floorf@e,w
  3195     1501                     u3925:
  3196     1501  1C03               	skipc
  3197     1502  2D04               	goto	u3921
  3198     1503  2D05               	goto	u3920
  3199     1504                     u3921:
  3200     1504  2D06               	goto	l738
  3201     1505                     u3920:
  3202     1505                     l2734:
  3203     1505  2DC7               	goto	l739
  3204     1506                     l738:
  3205     1506  1283               	bcf	3,5	;RP0=0, select bank0
  3206     1507  1303               	bcf	3,6	;RP1=0, select bank0
  3207     1508  1BBC               	btfsc	floorf@e+1,7
  3208     1509  2D0B               	goto	u3931
  3209     150A  2D0C               	goto	u3930
  3210     150B                     u3931:
  3211     150B  2D7C               	goto	l2748
  3212     150C                     u3930:
  3213     150C                     l2736:
  3214     150C  0A3B               	incf	floorf@e,w
  3215     150D  00FF               	movwf	btemp+1
  3216     150E  30FF               	movlw	255
  3217     150F  00B1               	movwf	??_floorf
  3218     1510  30FF               	movlw	255
  3219     1511  00B2               	movwf	??_floorf+1
  3220     1512  307F               	movlw	127
  3221     1513  00B3               	movwf	??_floorf+2
  3222     1514  3000               	movlw	0
  3223     1515  00B4               	movwf	??_floorf+3
  3224     1516  2D1C               	goto	u3940
  3225     1517                     u3945:
  3226     1517  0D34               	rlf	??_floorf+3,w
  3227     1518  0CB4               	rrf	??_floorf+3,f
  3228     1519  0CB3               	rrf	??_floorf+2,f
  3229     151A  0CB2               	rrf	??_floorf+1,f
  3230     151B  0CB1               	rrf	??_floorf,f
  3231     151C                     u3940:
  3232     151C  0BFF               	decfsz	btemp+1,f
  3233     151D  2D17               	goto	u3945
  3234     151E  0834               	movf	??_floorf+3,w
  3235     151F  00BA               	movwf	floorf@m+3
  3236     1520  0833               	movf	??_floorf+2,w
  3237     1521  00B9               	movwf	floorf@m+2
  3238     1522  0832               	movf	??_floorf+1,w
  3239     1523  00B8               	movwf	floorf@m+1
  3240     1524  0831               	movf	??_floorf,w
  3241     1525  00B7               	movwf	floorf@m
  3242     1526                     l2738:
  3243     1526  0837               	movf	floorf@m,w
  3244     1527  053D               	andwf	floorf@u,w
  3245     1528  00B1               	movwf	??_floorf
  3246     1529  0838               	movf	floorf@m+1,w
  3247     152A  053E               	andwf	floorf@u+1,w
  3248     152B  00B2               	movwf	??_floorf+1
  3249     152C  0839               	movf	floorf@m+2,w
  3250     152D  053F               	andwf	floorf@u+2,w
  3251     152E  00B3               	movwf	??_floorf+2
  3252     152F  083A               	movf	floorf@m+3,w
  3253     1530  0540               	andwf	floorf@u+3,w
  3254     1531  00B4               	movwf	??_floorf+3
  3255     1532  0834               	movf	??_floorf+3,w
  3256     1533  0433               	iorwf	??_floorf+2,w
  3257     1534  0432               	iorwf	??_floorf+1,w
  3258     1535  0431               	iorwf	??_floorf,w
  3259     1536  1D03               	skipz
  3260     1537  2D39               	goto	u3951
  3261     1538  2D3A               	goto	u3950
  3262     1539                     u3951:
  3263     1539  2D3B               	goto	l2742
  3264     153A                     u3950:
  3265     153A  2D05               	goto	l2734
  3266     153B                     l2742:
  3267     153B  083D               	movf	floorf@u,w
  3268     153C  00B1               	movwf	??_floorf
  3269     153D  083E               	movf	floorf@u+1,w
  3270     153E  00B2               	movwf	??_floorf+1
  3271     153F  083F               	movf	floorf@u+2,w
  3272     1540  00B3               	movwf	??_floorf+2
  3273     1541  0840               	movf	floorf@u+3,w
  3274     1542  00B4               	movwf	??_floorf+3
  3275     1543  301F               	movlw	31
  3276     1544                     u3965:
  3277     1544  1003               	clrc
  3278     1545  0CB4               	rrf	??_floorf+3,f
  3279     1546  0CB3               	rrf	??_floorf+2,f
  3280     1547  0CB2               	rrf	??_floorf+1,f
  3281     1548  0CB1               	rrf	??_floorf,f
  3282     1549                     u3960:
  3283     1549  3EFF               	addlw	-1
  3284     154A  1D03               	skipz
  3285     154B  2D44               	goto	u3965
  3286     154C  0834               	movf	??_floorf+3,w
  3287     154D  0433               	iorwf	??_floorf+2,w
  3288     154E  0432               	iorwf	??_floorf+1,w
  3289     154F  0431               	iorwf	??_floorf,w
  3290     1550  1903               	skipnz
  3291     1551  2D53               	goto	u3971
  3292     1552  2D54               	goto	u3970
  3293     1553                     u3971:
  3294     1553  2D6B               	goto	l2746
  3295     1554                     u3970:
  3296     1554                     l2744:
  3297     1554  0837               	movf	floorf@m,w
  3298     1555  07BD               	addwf	floorf@u,f
  3299     1556  0838               	movf	floorf@m+1,w
  3300     1557  1103               	clrz
  3301     1558  1803               	skipnc
  3302     1559  3E01               	addlw	1
  3303     155A  1903               	skipnz
  3304     155B  2D5D               	goto	u3981
  3305     155C  07BE               	addwf	floorf@u+1,f
  3306     155D                     u3981:
  3307     155D  0839               	movf	floorf@m+2,w
  3308     155E  1103               	clrz
  3309     155F  1803               	skipnc
  3310     1560  3E01               	addlw	1
  3311     1561  1903               	skipnz
  3312     1562  2D64               	goto	u3982
  3313     1563  07BF               	addwf	floorf@u+2,f
  3314     1564                     u3982:
  3315     1564  083A               	movf	floorf@m+3,w
  3316     1565  1103               	clrz
  3317     1566  1803               	skipnc
  3318     1567  3E01               	addlw	1
  3319     1568  1903               	skipnz
  3320     1569  2D6B               	goto	u3983
  3321     156A  07C0               	addwf	floorf@u+3,f
  3322     156B                     u3983:
  3323     156B                     l2746:
  3324     156B  0937               	comf	floorf@m,w
  3325     156C  00B1               	movwf	??_floorf
  3326     156D  0938               	comf	floorf@m+1,w
  3327     156E  00B2               	movwf	??_floorf+1
  3328     156F  0939               	comf	floorf@m+2,w
  3329     1570  00B3               	movwf	??_floorf+2
  3330     1571  093A               	comf	floorf@m+3,w
  3331     1572  00B4               	movwf	??_floorf+3
  3332     1573  0831               	movf	??_floorf,w
  3333     1574  05BD               	andwf	floorf@u,f
  3334     1575  0832               	movf	??_floorf+1,w
  3335     1576  05BE               	andwf	floorf@u+1,f
  3336     1577  0833               	movf	??_floorf+2,w
  3337     1578  05BF               	andwf	floorf@u+2,f
  3338     1579  0834               	movf	??_floorf+3,w
  3339     157A  05C0               	andwf	floorf@u+3,f
  3340     157B  2DBF               	goto	l743
  3341     157C                     l2748:
  3342     157C  083D               	movf	floorf@u,w
  3343     157D  00B1               	movwf	??_floorf
  3344     157E  083E               	movf	floorf@u+1,w
  3345     157F  00B2               	movwf	??_floorf+1
  3346     1580  083F               	movf	floorf@u+2,w
  3347     1581  00B3               	movwf	??_floorf+2
  3348     1582  0840               	movf	floorf@u+3,w
  3349     1583  00B4               	movwf	??_floorf+3
  3350     1584  301F               	movlw	31
  3351     1585                     u3995:
  3352     1585  1003               	clrc
  3353     1586  0CB4               	rrf	??_floorf+3,f
  3354     1587  0CB3               	rrf	??_floorf+2,f
  3355     1588  0CB2               	rrf	??_floorf+1,f
  3356     1589  0CB1               	rrf	??_floorf,f
  3357     158A                     u3990:
  3358     158A  3EFF               	addlw	-1
  3359     158B  1D03               	skipz
  3360     158C  2D85               	goto	u3995
  3361     158D  0834               	movf	??_floorf+3,w
  3362     158E  0433               	iorwf	??_floorf+2,w
  3363     158F  0432               	iorwf	??_floorf+1,w
  3364     1590  0431               	iorwf	??_floorf,w
  3365     1591  1D03               	skipz
  3366     1592  2D94               	goto	u4001
  3367     1593  2D95               	goto	u4000
  3368     1594                     u4001:
  3369     1594  2D9E               	goto	l2752
  3370     1595                     u4000:
  3371     1595                     l2750:
  3372     1595  3000               	movlw	0
  3373     1596  00C0               	movwf	floorf@u+3
  3374     1597  3000               	movlw	0
  3375     1598  00BF               	movwf	floorf@u+2
  3376     1599  3000               	movlw	0
  3377     159A  00BE               	movwf	floorf@u+1
  3378     159B  3000               	movlw	0
  3379     159C  00BD               	movwf	floorf@u
  3380     159D  2DBF               	goto	l743
  3381     159E                     l2752:
  3382     159E  083D               	movf	floorf@u,w
  3383     159F  00B1               	movwf	??_floorf
  3384     15A0  083E               	movf	floorf@u+1,w
  3385     15A1  00B2               	movwf	??_floorf+1
  3386     15A2  083F               	movf	floorf@u+2,w
  3387     15A3  00B3               	movwf	??_floorf+2
  3388     15A4  0840               	movf	floorf@u+3,w
  3389     15A5  00B4               	movwf	??_floorf+3
  3390     15A6  3001               	movlw	1
  3391     15A7                     u4015:
  3392     15A7  1003               	clrc
  3393     15A8  0DB1               	rlf	??_floorf,f
  3394     15A9  0DB2               	rlf	??_floorf+1,f
  3395     15AA  0DB3               	rlf	??_floorf+2,f
  3396     15AB  0DB4               	rlf	??_floorf+3,f
  3397     15AC                     u4010:
  3398     15AC  3EFF               	addlw	-1
  3399     15AD  1D03               	skipz
  3400     15AE  2DA7               	goto	u4015
  3401     15AF  0834               	movf	??_floorf+3,w
  3402     15B0  0433               	iorwf	??_floorf+2,w
  3403     15B1  0432               	iorwf	??_floorf+1,w
  3404     15B2  0431               	iorwf	??_floorf,w
  3405     15B3  1903               	skipnz
  3406     15B4  2DB6               	goto	u4021
  3407     15B5  2DB7               	goto	u4020
  3408     15B6                     u4021:
  3409     15B6  2DBF               	goto	l743
  3410     15B7                     u4020:
  3411     15B7                     l2754:
  3412     15B7  30BF               	movlw	191
  3413     15B8  00C0               	movwf	floorf@u+3
  3414     15B9  3080               	movlw	128
  3415     15BA  00BF               	movwf	floorf@u+2
  3416     15BB  3000               	movlw	0
  3417     15BC  00BE               	movwf	floorf@u+1
  3418     15BD  3000               	movlw	0
  3419     15BE  00BD               	movwf	floorf@u
  3420     15BF                     l743:
  3421     15BF  0840               	movf	floorf@u+3,w
  3422     15C0  00B0               	movwf	?_floorf+3
  3423     15C1  083F               	movf	floorf@u+2,w
  3424     15C2  00AF               	movwf	?_floorf+2
  3425     15C3  083E               	movf	floorf@u+1,w
  3426     15C4  00AE               	movwf	?_floorf+1
  3427     15C5  083D               	movf	floorf@u,w
  3428     15C6  00AD               	movwf	?_floorf
  3429     15C7                     l739:
  3430     15C7  0008               	return
  3431     15C8                     __end_of_floorf:
  3432                           
  3433                           	psect	text15
  3434     12DA                     __ptext15:	
  3435 ;; *************** function ___fpclassifyf *****************
  3436 ;; Defined at:
  3437 ;;		line 4 in file "C:\Program Files\Microchip\xc8\v2.45\pic\sources\c99\common\__fpclassifyf.c"
  3438 ;; Parameters:    Size  Location     Type
  3439 ;;  x               4    0[COMMON] float 
  3440 ;; Auto vars:     Size  Location     Type
  3441 ;;  u               4    2[BANK0 ] struct .
  3442 ;;  e               2    0[BANK0 ] int 
  3443 ;; Return value:  Size  Location     Type
  3444 ;;                  2    0[COMMON] int 
  3445 ;; Registers used:
  3446 ;;		wreg, status,2, status,0
  3447 ;; Tracked objects:
  3448 ;;		On entry : 0/0
  3449 ;;		On exit  : 0/0
  3450 ;;		Unchanged: 0/0
  3451 ;; Data sizes:     COMMON   BANK0   BANK1   BANK3   BANK2
  3452 ;;      Params:         4       0       0       0       0
  3453 ;;      Locals:         0       6       0       0       0
  3454 ;;      Temps:          6       0       0       0       0
  3455 ;;      Totals:        10       6       0       0       0
  3456 ;;Total ram usage:       16 bytes
  3457 ;; Hardware stack levels used: 1
  3458 ;; This function calls:
  3459 ;;		Nothing
  3460 ;; This function is called by:
  3461 ;;		_efgtoa
  3462 ;; This function uses a non-reentrant model
  3463 ;;
  3464                           
  3465     12DA                     ___fpclassifyf:	
  3466                           ;psect for function ___fpclassifyf
  3467                           
  3468     12DA                     l2692:	
  3469                           ;incstack = 0
  3470                           ; Regs used in ___fpclassifyf: [wreg+status,2+status,0]
  3471                           
  3472     12DA  1683               	bsf	3,5	;RP0=1, select bank3
  3473     12DB  1703               	bsf	3,6	;RP1=1, select bank3
  3474     12DC  0817               	movf	(___fpclassifyf@F465+3)^(0+384),w
  3475     12DD  1283               	bcf	3,5	;RP0=0, select bank0
  3476     12DE  1303               	bcf	3,6	;RP1=0, select bank0
  3477     12DF  00A5               	movwf	___fpclassifyf@u+3
  3478     12E0  1683               	bsf	3,5	;RP0=1, select bank3
  3479     12E1  1703               	bsf	3,6	;RP1=1, select bank3
  3480     12E2  0816               	movf	(___fpclassifyf@F465+2)^(0+384),w
  3481     12E3  1283               	bcf	3,5	;RP0=0, select bank0
  3482     12E4  1303               	bcf	3,6	;RP1=0, select bank0
  3483     12E5  00A4               	movwf	___fpclassifyf@u+2
  3484     12E6  1683               	bsf	3,5	;RP0=1, select bank3
  3485     12E7  1703               	bsf	3,6	;RP1=1, select bank3
  3486     12E8  0815               	movf	(___fpclassifyf@F465+1)^(0+384),w
  3487     12E9  1283               	bcf	3,5	;RP0=0, select bank0
  3488     12EA  1303               	bcf	3,6	;RP1=0, select bank0
  3489     12EB  00A3               	movwf	___fpclassifyf@u+1
  3490     12EC  1683               	bsf	3,5	;RP0=1, select bank3
  3491     12ED  1703               	bsf	3,6	;RP1=1, select bank3
  3492     12EE  0814               	movf	___fpclassifyf@F465^(0+384),w
  3493     12EF  1283               	bcf	3,5	;RP0=0, select bank0
  3494     12F0  1303               	bcf	3,6	;RP1=0, select bank0
  3495     12F1  00A2               	movwf	___fpclassifyf@u
  3496     12F2  0873               	movf	___fpclassifyf@x+3,w
  3497     12F3  00A5               	movwf	___fpclassifyf@u+3
  3498     12F4  0872               	movf	___fpclassifyf@x+2,w
  3499     12F5  00A4               	movwf	___fpclassifyf@u+2
  3500     12F6  0871               	movf	___fpclassifyf@x+1,w
  3501     12F7  00A3               	movwf	___fpclassifyf@u+1
  3502     12F8  0870               	movf	___fpclassifyf@x,w
  3503     12F9  00A2               	movwf	___fpclassifyf@u
  3504     12FA                     l2694:
  3505     12FA  0822               	movf	___fpclassifyf@u,w
  3506     12FB  00F4               	movwf	??___fpclassifyf
  3507     12FC  0823               	movf	___fpclassifyf@u+1,w
  3508     12FD  00F5               	movwf	??___fpclassifyf+1
  3509     12FE  0824               	movf	___fpclassifyf@u+2,w
  3510     12FF  00F6               	movwf	??___fpclassifyf+2
  3511     1300  0825               	movf	___fpclassifyf@u+3,w
  3512     1301  00F7               	movwf	??___fpclassifyf+3
  3513     1302  3017               	movlw	23
  3514     1303                     u3815:
  3515     1303  1003               	clrc
  3516     1304  0CF7               	rrf	??___fpclassifyf+3,f
  3517     1305  0CF6               	rrf	??___fpclassifyf+2,f
  3518     1306  0CF5               	rrf	??___fpclassifyf+1,f
  3519     1307  0CF4               	rrf	??___fpclassifyf,f
  3520     1308                     u3810:
  3521     1308  3EFF               	addlw	-1
  3522     1309  1D03               	skipz
  3523     130A  2B03               	goto	u3815
  3524     130B  30FF               	movlw	255
  3525     130C  0574               	andwf	??___fpclassifyf,w
  3526     130D  00A0               	movwf	___fpclassifyf@e
  3527     130E  3000               	movlw	0
  3528     130F  0575               	andwf	??___fpclassifyf+1,w
  3529     1310  00A1               	movwf	___fpclassifyf@e+1
  3530     1311                     l2696:
  3531     1311  0820               	movf	___fpclassifyf@e,w
  3532     1312  0421               	iorwf	___fpclassifyf@e+1,w
  3533     1313  1D03               	btfss	3,2
  3534     1314  2B16               	goto	u3821
  3535     1315  2B17               	goto	u3820
  3536     1316                     u3821:
  3537     1316  2B3A               	goto	l2706
  3538     1317                     u3820:
  3539     1317                     l2698:
  3540     1317  0822               	movf	___fpclassifyf@u,w
  3541     1318  00F4               	movwf	??___fpclassifyf
  3542     1319  0823               	movf	___fpclassifyf@u+1,w
  3543     131A  00F5               	movwf	??___fpclassifyf+1
  3544     131B  0824               	movf	___fpclassifyf@u+2,w
  3545     131C  00F6               	movwf	??___fpclassifyf+2
  3546     131D  0825               	movf	___fpclassifyf@u+3,w
  3547     131E  00F7               	movwf	??___fpclassifyf+3
  3548     131F  3001               	movlw	1
  3549     1320                     u3835:
  3550     1320  1003               	clrc
  3551     1321  0DF4               	rlf	??___fpclassifyf,f
  3552     1322  0DF5               	rlf	??___fpclassifyf+1,f
  3553     1323  0DF6               	rlf	??___fpclassifyf+2,f
  3554     1324  0DF7               	rlf	??___fpclassifyf+3,f
  3555     1325                     u3830:
  3556     1325  3EFF               	addlw	-1
  3557     1326  1D03               	skipz
  3558     1327  2B20               	goto	u3835
  3559     1328  0877               	movf	??___fpclassifyf+3,w
  3560     1329  0476               	iorwf	??___fpclassifyf+2,w
  3561     132A  0475               	iorwf	??___fpclassifyf+1,w
  3562     132B  0474               	iorwf	??___fpclassifyf,w
  3563     132C  1D03               	skipz
  3564     132D  2B2F               	goto	u3841
  3565     132E  2B30               	goto	u3840
  3566     132F                     u3841:
  3567     132F  2B35               	goto	l2702
  3568     1330                     u3840:
  3569     1330                     l2700:
  3570     1330  3002               	movlw	2
  3571     1331  00F0               	movwf	?___fpclassifyf
  3572     1332  3000               	movlw	0
  3573     1333  00F1               	movwf	?___fpclassifyf+1
  3574     1334  2B66               	goto	l732
  3575     1335                     l2702:
  3576     1335  3003               	movlw	3
  3577     1336  00F0               	movwf	?___fpclassifyf
  3578     1337  3000               	movlw	0
  3579     1338  00F1               	movwf	?___fpclassifyf+1
  3580     1339  2B66               	goto	l732
  3581     133A                     l2706:
  3582     133A  0A20               	incf	___fpclassifyf@e,w
  3583     133B  0421               	iorwf	___fpclassifyf@e+1,w
  3584     133C  1D03               	btfss	3,2
  3585     133D  2B3F               	goto	u3851
  3586     133E  2B40               	goto	u3850
  3587     133F                     u3851:
  3588     133F  2B62               	goto	l2712
  3589     1340                     u3850:
  3590     1340                     l2708:
  3591     1340  0822               	movf	___fpclassifyf@u,w
  3592     1341  00F4               	movwf	??___fpclassifyf
  3593     1342  0823               	movf	___fpclassifyf@u+1,w
  3594     1343  00F5               	movwf	??___fpclassifyf+1
  3595     1344  0824               	movf	___fpclassifyf@u+2,w
  3596     1345  00F6               	movwf	??___fpclassifyf+2
  3597     1346  0825               	movf	___fpclassifyf@u+3,w
  3598     1347  00F7               	movwf	??___fpclassifyf+3
  3599     1348  3009               	movlw	9
  3600     1349                     u3865:
  3601     1349  1003               	clrc
  3602     134A  0DF4               	rlf	??___fpclassifyf,f
  3603     134B  0DF5               	rlf	??___fpclassifyf+1,f
  3604     134C  0DF6               	rlf	??___fpclassifyf+2,f
  3605     134D  0DF7               	rlf	??___fpclassifyf+3,f
  3606     134E                     u3860:
  3607     134E  3EFF               	addlw	-1
  3608     134F  1D03               	skipz
  3609     1350  2B49               	goto	u3865
  3610     1351  0877               	movf	??___fpclassifyf+3,w
  3611     1352  0476               	iorwf	??___fpclassifyf+2,w
  3612     1353  0475               	iorwf	??___fpclassifyf+1,w
  3613     1354  0474               	iorwf	??___fpclassifyf,w
  3614     1355  1903               	skipnz
  3615     1356  2B58               	goto	u3871
  3616     1357  2B5A               	goto	u3870
  3617     1358                     u3871:
  3618     1358  3001               	movlw	1
  3619     1359  2B5B               	goto	u3880
  3620     135A                     u3870:
  3621     135A  3000               	movlw	0
  3622     135B                     u3880:
  3623     135B  00F8               	movwf	??___fpclassifyf+4
  3624     135C  01F9               	clrf	??___fpclassifyf+5
  3625     135D  0878               	movf	??___fpclassifyf+4,w
  3626     135E  00F0               	movwf	?___fpclassifyf
  3627     135F  0879               	movf	??___fpclassifyf+5,w
  3628     1360  00F1               	movwf	?___fpclassifyf+1
  3629     1361  2B66               	goto	l732
  3630     1362                     l2712:
  3631     1362  3004               	movlw	4
  3632     1363  00F0               	movwf	?___fpclassifyf
  3633     1364  3000               	movlw	0
  3634     1365  00F1               	movwf	?___fpclassifyf+1
  3635     1366                     l732:
  3636     1366  0008               	return
  3637     1367                     __end_of___fpclassifyf:
  3638                           
  3639                           	psect	text16
  3640     080C                     __ptext16:	
  3641 ;; *************** function ___fltol *****************
  3642 ;; Defined at:
  3643 ;;		line 43 in file "C:\Program Files\Microchip\xc8\v2.45\pic\sources\c99\common\fltol.c"
  3644 ;; Parameters:    Size  Location     Type
  3645 ;;  f1              4    0[COMMON] int 
  3646 ;; Auto vars:     Size  Location     Type
  3647 ;;  exp1            1    9[COMMON] unsigned char 
  3648 ;;  sign1           1    8[COMMON] unsigned char 
  3649 ;; Return value:  Size  Location     Type
  3650 ;;                  4    0[COMMON] long 
  3651 ;; Registers used:
  3652 ;;		wreg, status,2, status,0, btemp+1
  3653 ;; Tracked objects:
  3654 ;;		On entry : 0/0
  3655 ;;		On exit  : 0/0
  3656 ;;		Unchanged: 0/0
  3657 ;; Data sizes:     COMMON   BANK0   BANK1   BANK3   BANK2
  3658 ;;      Params:         4       0       0       0       0
  3659 ;;      Locals:         2       0       0       0       0
  3660 ;;      Temps:          4       0       0       0       0
  3661 ;;      Totals:        10       0       0       0       0
  3662 ;;Total ram usage:       10 bytes
  3663 ;; Hardware stack levels used: 1
  3664 ;; This function calls:
  3665 ;;		Nothing
  3666 ;; This function is called by:
  3667 ;;		_efgtoa
  3668 ;; This function uses a non-reentrant model
  3669 ;;
  3670                           
  3671     080C                     ___fltol:	
  3672                           ;psect for function ___fltol
  3673                           
  3674     080C                     l2348:	
  3675                           ;incstack = 0
  3676                           ; Regs used in ___fltol: [wreg+status,2+status,0+btemp+1]
  3677                           
  3678     080C  1003               	clrc
  3679     080D  0D72               	rlf	___fltol@f1+2,w
  3680     080E  0D73               	rlf	___fltol@f1+3,w
  3681     080F  00F9               	movwf	___fltol@exp1
  3682     0810  0879               	movf	___fltol@exp1,w
  3683     0811  1D03               	btfss	3,2
  3684     0812  2814               	goto	u3021
  3685     0813  2815               	goto	u3020
  3686     0814                     u3021:
  3687     0814  281E               	goto	l2354
  3688     0815                     u3020:
  3689     0815                     l2350:
  3690     0815  3000               	movlw	0
  3691     0816  00F3               	movwf	?___fltol+3
  3692     0817  3000               	movlw	0
  3693     0818  00F2               	movwf	?___fltol+2
  3694     0819  3000               	movlw	0
  3695     081A  00F1               	movwf	?___fltol+1
  3696     081B  3000               	movlw	0
  3697     081C  00F0               	movwf	?___fltol
  3698     081D  2881               	goto	l335
  3699     081E                     l2354:
  3700     081E  0870               	movf	___fltol@f1,w
  3701     081F  00F4               	movwf	??___fltol
  3702     0820  0871               	movf	___fltol@f1+1,w
  3703     0821  00F5               	movwf	??___fltol+1
  3704     0822  0872               	movf	___fltol@f1+2,w
  3705     0823  00F6               	movwf	??___fltol+2
  3706     0824  0873               	movf	___fltol@f1+3,w
  3707     0825  00F7               	movwf	??___fltol+3
  3708     0826  301F               	movlw	31
  3709     0827                     u3035:
  3710     0827  1003               	clrc
  3711     0828  0CF7               	rrf	??___fltol+3,f
  3712     0829  0CF6               	rrf	??___fltol+2,f
  3713     082A  0CF5               	rrf	??___fltol+1,f
  3714     082B  0CF4               	rrf	??___fltol,f
  3715     082C                     u3030:
  3716     082C  3EFF               	addlw	-1
  3717     082D  1D03               	skipz
  3718     082E  2827               	goto	u3035
  3719     082F  0874               	movf	??___fltol,w
  3720     0830  00F8               	movwf	___fltol@sign1
  3721     0831                     l2356:
  3722     0831  17F2               	bsf	___fltol@f1+2,7
  3723     0832                     l2358:
  3724     0832  30FF               	movlw	255
  3725     0833  05F0               	andwf	___fltol@f1,f
  3726     0834  30FF               	movlw	255
  3727     0835  05F1               	andwf	___fltol@f1+1,f
  3728     0836  30FF               	movlw	255
  3729     0837  05F2               	andwf	___fltol@f1+2,f
  3730     0838  3000               	movlw	0
  3731     0839  05F3               	andwf	___fltol@f1+3,f
  3732     083A                     l2360:
  3733     083A  3096               	movlw	150
  3734     083B  02F9               	subwf	___fltol@exp1,f
  3735     083C                     l2362:
  3736     083C  1FF9               	btfss	___fltol@exp1,7
  3737     083D  283F               	goto	u3041
  3738     083E  2840               	goto	u3040
  3739     083F                     u3041:
  3740     083F  285A               	goto	l2374
  3741     0840                     u3040:
  3742     0840                     l2364:
  3743     0840  0879               	movf	___fltol@exp1,w
  3744     0841  3A80               	xorlw	128
  3745     0842  3E97               	addlw	151
  3746     0843  1803               	skipnc
  3747     0844  2846               	goto	u3051
  3748     0845  2847               	goto	u3050
  3749     0846                     u3051:
  3750     0846  2848               	goto	l2370
  3751     0847                     u3050:
  3752     0847  2815               	goto	l2350
  3753     0848                     l2370:
  3754     0848  3001               	movlw	1
  3755     0849                     u3065:
  3756     0849  1003               	clrc
  3757     084A  0CF3               	rrf	___fltol@f1+3,f
  3758     084B  0CF2               	rrf	___fltol@f1+2,f
  3759     084C  0CF1               	rrf	___fltol@f1+1,f
  3760     084D  0CF0               	rrf	___fltol@f1,f
  3761     084E  3EFF               	addlw	-1
  3762     084F  1D03               	skipz
  3763     0850  2849               	goto	u3065
  3764     0851                     l2372:
  3765     0851  3001               	movlw	1
  3766     0852  00FF               	movwf	btemp+1
  3767     0853  087F               	movf	btemp+1,w
  3768     0854  07F9               	addwf	___fltol@exp1,f
  3769     0855  1D03               	btfss	3,2
  3770     0856  2858               	goto	u3071
  3771     0857  2859               	goto	u3070
  3772     0858                     u3071:
  3773     0858  2848               	goto	l2370
  3774     0859                     u3070:
  3775     0859  2871               	goto	l2382
  3776     085A                     l2374:
  3777     085A  3020               	movlw	32
  3778     085B  0279               	subwf	___fltol@exp1,w
  3779     085C  1C03               	skipc
  3780     085D  285F               	goto	u3081
  3781     085E  2860               	goto	u3080
  3782     085F                     u3081:
  3783     085F  286C               	goto	l342
  3784     0860                     u3080:
  3785     0860  2815               	goto	l2350
  3786     0861                     l2380:
  3787     0861  3001               	movlw	1
  3788     0862  00F4               	movwf	??___fltol
  3789     0863                     u3095:
  3790     0863  1003               	clrc
  3791     0864  0DF0               	rlf	___fltol@f1,f
  3792     0865  0DF1               	rlf	___fltol@f1+1,f
  3793     0866  0DF2               	rlf	___fltol@f1+2,f
  3794     0867  0DF3               	rlf	___fltol@f1+3,f
  3795     0868  0BF4               	decfsz	??___fltol,f
  3796     0869  2863               	goto	u3095
  3797     086A  3001               	movlw	1
  3798     086B  02F9               	subwf	___fltol@exp1,f
  3799     086C                     l342:
  3800     086C  0879               	movf	___fltol@exp1,w
  3801     086D  1D03               	btfss	3,2
  3802     086E  2870               	goto	u3101
  3803     086F  2871               	goto	u3100
  3804     0870                     u3101:
  3805     0870  2861               	goto	l2380
  3806     0871                     u3100:
  3807     0871                     l2382:
  3808     0871  0878               	movf	___fltol@sign1,w
  3809     0872  1903               	btfsc	3,2
  3810     0873  2875               	goto	u3111
  3811     0874  2876               	goto	u3110
  3812     0875                     u3111:
  3813     0875  2881               	goto	l345
  3814     0876                     u3110:
  3815     0876                     l2384:
  3816     0876  09F0               	comf	___fltol@f1,f
  3817     0877  09F1               	comf	___fltol@f1+1,f
  3818     0878  09F2               	comf	___fltol@f1+2,f
  3819     0879  09F3               	comf	___fltol@f1+3,f
  3820     087A  0AF0               	incf	___fltol@f1,f
  3821     087B  1903               	skipnz
  3822     087C  0AF1               	incf	___fltol@f1+1,f
  3823     087D  1903               	skipnz
  3824     087E  0AF2               	incf	___fltol@f1+2,f
  3825     087F  1903               	skipnz
  3826     0880  0AF3               	incf	___fltol@f1+3,f
  3827     0881                     l345:
  3828     0881                     l335:
  3829     0881  0008               	return
  3830     0882                     __end_of___fltol:
  3831                           
  3832                           	psect	text17
  3833     1030                     __ptext17:	
  3834 ;; *************** function ___flsub *****************
  3835 ;; Defined at:
  3836 ;;		line 242 in file "C:\Program Files\Microchip\xc8\v2.45\pic\sources\c99\common\sprcadd.c"
  3837 ;; Parameters:    Size  Location     Type
  3838 ;;  a               4   26[BANK0 ] long 
  3839 ;;  b               4   30[BANK0 ] long 
  3840 ;; Auto vars:     Size  Location     Type
  3841 ;;		None
  3842 ;; Return value:  Size  Location     Type
  3843 ;;                  4   26[BANK0 ] long 
  3844 ;; Registers used:
  3845 ;;		wreg, status,2, status,0, btemp+1, pclath, cstack
  3846 ;; Tracked objects:
  3847 ;;		On entry : 0/0
  3848 ;;		On exit  : 0/0
  3849 ;;		Unchanged: 0/0
  3850 ;; Data sizes:     COMMON   BANK0   BANK1   BANK3   BANK2
  3851 ;;      Params:         0       8       0       0       0
  3852 ;;      Locals:         0       0       0       0       0
  3853 ;;      Temps:          0       0       0       0       0
  3854 ;;      Totals:         0       8       0       0       0
  3855 ;;Total ram usage:        8 bytes
  3856 ;; Hardware stack levels used: 1
  3857 ;; Hardware stack levels required when called: 1
  3858 ;; This function calls:
  3859 ;;		___fladd
  3860 ;; This function is called by:
  3861 ;;		_efgtoa
  3862 ;; This function uses a non-reentrant model
  3863 ;;
  3864                           
  3865     1030                     ___flsub:	
  3866                           ;psect for function ___flsub
  3867                           
  3868     1030                     l2386:	
  3869                           ;incstack = 0
  3870                           ; Regs used in ___flsub: [wreg+status,2+status,0+btemp+1+pclath+cstack]
  3871                           
  3872     1030  3080               	movlw	128
  3873     1031  1283               	bcf	3,5	;RP0=0, select bank0
  3874     1032  1303               	bcf	3,6	;RP1=0, select bank0
  3875     1033  06BD               	xorwf	___flsub@a+3,f
  3876     1034                     l2388:
  3877     1034  0841               	movf	___flsub@b+3,w
  3878     1035  00F3               	movwf	___fladd@b+3
  3879     1036  0840               	movf	___flsub@b+2,w
  3880     1037  00F2               	movwf	___fladd@b+2
  3881     1038  083F               	movf	___flsub@b+1,w
  3882     1039  00F1               	movwf	___fladd@b+1
  3883     103A  083E               	movf	___flsub@b,w
  3884     103B  00F0               	movwf	___fladd@b
  3885     103C  083D               	movf	___flsub@a+3,w
  3886     103D  00F7               	movwf	___fladd@a+3
  3887     103E  083C               	movf	___flsub@a+2,w
  3888     103F  00F6               	movwf	___fladd@a+2
  3889     1040  083B               	movf	___flsub@a+1,w
  3890     1041  00F5               	movwf	___fladd@a+1
  3891     1042  083A               	movf	___flsub@a,w
  3892     1043  00F4               	movwf	___fladd@a
  3893     1044  120A  158A  2257  160A  118A  	fcall	___fladd
  3894     1049  0873               	movf	?___fladd+3,w
  3895     104A  1283               	bcf	3,5	;RP0=0, select bank0
  3896     104B  1303               	bcf	3,6	;RP1=0, select bank0
  3897     104C  00BD               	movwf	?___flsub+3
  3898     104D  0872               	movf	?___fladd+2,w
  3899     104E  00BC               	movwf	?___flsub+2
  3900     104F  0871               	movf	?___fladd+1,w
  3901     1050  00BB               	movwf	?___flsub+1
  3902     1051  0870               	movf	?___fladd,w
  3903     1052  00BA               	movwf	?___flsub
  3904     1053                     l488:
  3905     1053  0008               	return
  3906     1054                     __end_of___flsub:
  3907                           
  3908                           	psect	text18
  3909     0A57                     __ptext18:	
  3910 ;; *************** function ___fladd *****************
  3911 ;; Defined at:
  3912 ;;		line 10 in file "C:\Program Files\Microchip\xc8\v2.45\pic\sources\c99\common\sprcadd.c"
  3913 ;; Parameters:    Size  Location     Type
  3914 ;;  b               4    0[COMMON] long 
  3915 ;;  a               4    4[COMMON] long 
  3916 ;; Auto vars:     Size  Location     Type
  3917 ;;  grs             1   11[COMMON] unsigned char 
  3918 ;;  bexp            1   10[COMMON] unsigned char 
  3919 ;;  aexp            1    9[COMMON] unsigned char 
  3920 ;;  signs           1    8[COMMON] unsigned char 
  3921 ;; Return value:  Size  Location     Type
  3922 ;;                  4    0[COMMON] unsigned char 
  3923 ;; Registers used:
  3924 ;;		wreg, status,2, status,0, btemp+1
  3925 ;; Tracked objects:
  3926 ;;		On entry : 0/0
  3927 ;;		On exit  : 0/0
  3928 ;;		Unchanged: 0/0
  3929 ;; Data sizes:     COMMON   BANK0   BANK1   BANK3   BANK2
  3930 ;;      Params:         8       0       0       0       0
  3931 ;;      Locals:         4       0       0       0       0
  3932 ;;      Temps:          0       8       0       0       0
  3933 ;;      Totals:        12       8       0       0       0
  3934 ;;Total ram usage:       20 bytes
  3935 ;; Hardware stack levels used: 1
  3936 ;; This function calls:
  3937 ;;		Nothing
  3938 ;; This function is called by:
  3939 ;;		___flsub
  3940 ;;		_efgtoa
  3941 ;; This function uses a non-reentrant model
  3942 ;;
  3943                           
  3944     0A57                     ___fladd:	
  3945                           ;psect for function ___fladd
  3946                           
  3947     0A57                     l2072:	
  3948                           ;incstack = 0
  3949                           ; Regs used in ___fladd: [wreg+status,2+status,0+btemp+1]
  3950                           
  3951     0A57  0873               	movf	___fladd@b+3,w
  3952     0A58  3980               	andlw	128
  3953     0A59  00F8               	movwf	___fladd@signs
  3954     0A5A                     l2074:
  3955     0A5A  0873               	movf	___fladd@b+3,w
  3956     0A5B  1283               	bcf	3,5	;RP0=0, select bank0
  3957     0A5C  1303               	bcf	3,6	;RP1=0, select bank0
  3958     0A5D  00A0               	movwf	??___fladd
  3959     0A5E  0720               	addwf	??___fladd,w
  3960     0A5F  00FA               	movwf	___fladd@bexp
  3961     0A60                     l2076:
  3962     0A60  1FF2               	btfss	___fladd@b+2,7
  3963     0A61  2A63               	goto	u2371
  3964     0A62  2A64               	goto	u2370
  3965     0A63                     u2371:
  3966     0A63  2A65               	goto	l2080
  3967     0A64                     u2370:
  3968     0A64                     l2078:
  3969     0A64  147A               	bsf	___fladd@bexp,0
  3970     0A65                     l2080:
  3971     0A65  087A               	movf	___fladd@bexp,w
  3972     0A66  1903               	btfsc	3,2
  3973     0A67  2A69               	goto	u2381
  3974     0A68  2A6A               	goto	u2380
  3975     0A69                     u2381:
  3976     0A69  2A7A               	goto	l2090
  3977     0A6A                     u2380:
  3978     0A6A                     l2082:
  3979     0A6A  0A7A               	incf	___fladd@bexp,w
  3980     0A6B  1D03               	btfss	3,2
  3981     0A6C  2A6E               	goto	u2391
  3982     0A6D  2A6F               	goto	u2390
  3983     0A6E                     u2391:
  3984     0A6E  2A77               	goto	l2086
  3985     0A6F                     u2390:
  3986     0A6F                     l2084:
  3987     0A6F  3000               	movlw	0
  3988     0A70  00F3               	movwf	___fladd@b+3
  3989     0A71  3000               	movlw	0
  3990     0A72  00F2               	movwf	___fladd@b+2
  3991     0A73  3000               	movlw	0
  3992     0A74  00F1               	movwf	___fladd@b+1
  3993     0A75  3000               	movlw	0
  3994     0A76  00F0               	movwf	___fladd@b
  3995     0A77                     l2086:
  3996     0A77  17F2               	bsf	___fladd@b+2,7
  3997     0A78                     l2088:
  3998     0A78  01F3               	clrf	___fladd@b+3
  3999     0A79  2A82               	goto	l2092
  4000     0A7A                     l2090:
  4001     0A7A  3000               	movlw	0
  4002     0A7B  00F3               	movwf	___fladd@b+3
  4003     0A7C  3000               	movlw	0
  4004     0A7D  00F2               	movwf	___fladd@b+2
  4005     0A7E  3000               	movlw	0
  4006     0A7F  00F1               	movwf	___fladd@b+1
  4007     0A80  3000               	movlw	0
  4008     0A81  00F0               	movwf	___fladd@b
  4009     0A82                     l2092:
  4010     0A82  0877               	movf	___fladd@a+3,w
  4011     0A83  3980               	andlw	128
  4012     0A84  00F9               	movwf	___fladd@aexp
  4013     0A85                     l2094:
  4014     0A85  0879               	movf	___fladd@aexp,w
  4015     0A86  0678               	xorwf	___fladd@signs,w
  4016     0A87  1903               	skipnz
  4017     0A88  2A8A               	goto	u2401
  4018     0A89  2A8B               	goto	u2400
  4019     0A8A                     u2401:
  4020     0A8A  2A8C               	goto	l2098
  4021     0A8B                     u2400:
  4022     0A8B                     l2096:
  4023     0A8B  1778               	bsf	___fladd@signs,6
  4024     0A8C                     l2098:
  4025     0A8C  0877               	movf	___fladd@a+3,w
  4026     0A8D  00A0               	movwf	??___fladd
  4027     0A8E  0720               	addwf	??___fladd,w
  4028     0A8F  00F9               	movwf	___fladd@aexp
  4029     0A90                     l2100:
  4030     0A90  1FF6               	btfss	___fladd@a+2,7
  4031     0A91  2A93               	goto	u2411
  4032     0A92  2A94               	goto	u2410
  4033     0A93                     u2411:
  4034     0A93  2A95               	goto	l2104
  4035     0A94                     u2410:
  4036     0A94                     l2102:
  4037     0A94  1479               	bsf	___fladd@aexp,0
  4038     0A95                     l2104:
  4039     0A95  0879               	movf	___fladd@aexp,w
  4040     0A96  1903               	btfsc	3,2
  4041     0A97  2A99               	goto	u2421
  4042     0A98  2A9A               	goto	u2420
  4043     0A99                     u2421:
  4044     0A99  2AAA               	goto	l2114
  4045     0A9A                     u2420:
  4046     0A9A                     l2106:
  4047     0A9A  0A79               	incf	___fladd@aexp,w
  4048     0A9B  1D03               	btfss	3,2
  4049     0A9C  2A9E               	goto	u2431
  4050     0A9D  2A9F               	goto	u2430
  4051     0A9E                     u2431:
  4052     0A9E  2AA7               	goto	l2110
  4053     0A9F                     u2430:
  4054     0A9F                     l2108:
  4055     0A9F  3000               	movlw	0
  4056     0AA0  00F7               	movwf	___fladd@a+3
  4057     0AA1  3000               	movlw	0
  4058     0AA2  00F6               	movwf	___fladd@a+2
  4059     0AA3  3000               	movlw	0
  4060     0AA4  00F5               	movwf	___fladd@a+1
  4061     0AA5  3000               	movlw	0
  4062     0AA6  00F4               	movwf	___fladd@a
  4063     0AA7                     l2110:
  4064     0AA7  17F6               	bsf	___fladd@a+2,7
  4065     0AA8                     l2112:
  4066     0AA8  01F7               	clrf	___fladd@a+3
  4067     0AA9  2AB2               	goto	l442
  4068     0AAA                     l2114:
  4069     0AAA  3000               	movlw	0
  4070     0AAB  00F7               	movwf	___fladd@a+3
  4071     0AAC  3000               	movlw	0
  4072     0AAD  00F6               	movwf	___fladd@a+2
  4073     0AAE  3000               	movlw	0
  4074     0AAF  00F5               	movwf	___fladd@a+1
  4075     0AB0  3000               	movlw	0
  4076     0AB1  00F4               	movwf	___fladd@a
  4077     0AB2                     l442:
  4078     0AB2  087A               	movf	___fladd@bexp,w
  4079     0AB3  0279               	subwf	___fladd@aexp,w
  4080     0AB4  1803               	skipnc
  4081     0AB5  2AB7               	goto	u2441
  4082     0AB6  2AB8               	goto	u2440
  4083     0AB7                     u2441:
  4084     0AB7  2ADE               	goto	l2150
  4085     0AB8                     u2440:
  4086     0AB8                     l2116:
  4087     0AB8  1F78               	btfss	___fladd@signs,6
  4088     0AB9  2ABB               	goto	u2451
  4089     0ABA  2ABC               	goto	u2450
  4090     0ABB                     u2451:
  4091     0ABB  2AC0               	goto	l2120
  4092     0ABC                     u2450:
  4093     0ABC                     l2118:
  4094     0ABC  3080               	movlw	128
  4095     0ABD  00FF               	movwf	btemp+1
  4096     0ABE  087F               	movf	btemp+1,w
  4097     0ABF  06F8               	xorwf	___fladd@signs,f
  4098     0AC0                     l2120:
  4099     0AC0  087A               	movf	___fladd@bexp,w
  4100     0AC1  00FB               	movwf	___fladd@grs
  4101     0AC2                     l2122:
  4102     0AC2  0879               	movf	___fladd@aexp,w
  4103     0AC3  00FA               	movwf	___fladd@bexp
  4104     0AC4                     l2124:
  4105     0AC4  087B               	movf	___fladd@grs,w
  4106     0AC5  00F9               	movwf	___fladd@aexp
  4107     0AC6                     l2126:
  4108     0AC6  0870               	movf	___fladd@b,w
  4109     0AC7  00FB               	movwf	___fladd@grs
  4110     0AC8                     l2128:
  4111     0AC8  0874               	movf	___fladd@a,w
  4112     0AC9  00F0               	movwf	___fladd@b
  4113     0ACA                     l2130:
  4114     0ACA  087B               	movf	___fladd@grs,w
  4115     0ACB  00F4               	movwf	___fladd@a
  4116     0ACC                     l2132:
  4117     0ACC  0871               	movf	___fladd@b+1,w
  4118     0ACD  00FB               	movwf	___fladd@grs
  4119     0ACE                     l2134:
  4120     0ACE  0875               	movf	___fladd@a+1,w
  4121     0ACF  00F1               	movwf	___fladd@b+1
  4122     0AD0                     l2136:
  4123     0AD0  087B               	movf	___fladd@grs,w
  4124     0AD1  00F5               	movwf	___fladd@a+1
  4125     0AD2                     l2138:
  4126     0AD2  0872               	movf	___fladd@b+2,w
  4127     0AD3  00FB               	movwf	___fladd@grs
  4128     0AD4                     l2140:
  4129     0AD4  0876               	movf	___fladd@a+2,w
  4130     0AD5  00F2               	movwf	___fladd@b+2
  4131     0AD6                     l2142:
  4132     0AD6  087B               	movf	___fladd@grs,w
  4133     0AD7  00F6               	movwf	___fladd@a+2
  4134     0AD8                     l2144:
  4135     0AD8  0873               	movf	___fladd@b+3,w
  4136     0AD9  00FB               	movwf	___fladd@grs
  4137     0ADA                     l2146:
  4138     0ADA  0877               	movf	___fladd@a+3,w
  4139     0ADB  00F3               	movwf	___fladd@b+3
  4140     0ADC                     l2148:
  4141     0ADC  087B               	movf	___fladd@grs,w
  4142     0ADD  00F7               	movwf	___fladd@a+3
  4143     0ADE                     l2150:
  4144     0ADE  01FB               	clrf	___fladd@grs
  4145     0ADF                     l2152:
  4146     0ADF  0879               	movf	___fladd@aexp,w
  4147     0AE0  00A0               	movwf	??___fladd
  4148     0AE1  01A1               	clrf	??___fladd+1
  4149     0AE2  0821               	movf	??___fladd+1,w
  4150     0AE3  00A3               	movwf	??___fladd+3
  4151     0AE4  087A               	movf	___fladd@bexp,w
  4152     0AE5  0220               	subwf	??___fladd,w
  4153     0AE6  00A2               	movwf	??___fladd+2
  4154     0AE7  1C03               	skipc
  4155     0AE8  03A3               	decf	??___fladd+3,f
  4156     0AE9  0823               	movf	??___fladd+3,w
  4157     0AEA  3A80               	xorlw	128
  4158     0AEB  00FF               	movwf	btemp+1
  4159     0AEC  3080               	movlw	128
  4160     0AED  027F               	subwf	btemp+1,w
  4161     0AEE  1D03               	skipz
  4162     0AEF  2AF2               	goto	u2465
  4163     0AF0  301A               	movlw	26
  4164     0AF1  0222               	subwf	??___fladd+2,w
  4165     0AF2                     u2465:
  4166     0AF2  1C03               	skipc
  4167     0AF3  2AF5               	goto	u2461
  4168     0AF4  2AF6               	goto	u2460
  4169     0AF5                     u2461:
  4170     0AF5  2B2F               	goto	l2168
  4171     0AF6                     u2460:
  4172     0AF6                     l2154:
  4173     0AF6  0873               	movf	___fladd@b+3,w
  4174     0AF7  0472               	iorwf	___fladd@b+2,w
  4175     0AF8  0471               	iorwf	___fladd@b+1,w
  4176     0AF9  0470               	iorwf	___fladd@b,w
  4177     0AFA  1D03               	skipz
  4178     0AFB  2AFD               	goto	u2471
  4179     0AFC  2AFF               	goto	u2470
  4180     0AFD                     u2471:
  4181     0AFD  3001               	movlw	1
  4182     0AFE  2B00               	goto	u2480
  4183     0AFF                     u2470:
  4184     0AFF  3000               	movlw	0
  4185     0B00                     u2480:
  4186     0B00  00FB               	movwf	___fladd@grs
  4187     0B01  3000               	movlw	0
  4188     0B02  00F3               	movwf	___fladd@b+3
  4189     0B03  3000               	movlw	0
  4190     0B04  00F2               	movwf	___fladd@b+2
  4191     0B05  3000               	movlw	0
  4192     0B06  00F1               	movwf	___fladd@b+1
  4193     0B07  3000               	movlw	0
  4194     0B08  00F0               	movwf	___fladd@b
  4195     0B09  0879               	movf	___fladd@aexp,w
  4196     0B0A  00FA               	movwf	___fladd@bexp
  4197     0B0B  2B35               	goto	l446
  4198     0B0C                     l448:
  4199     0B0C  1C7B               	btfss	___fladd@grs,0
  4200     0B0D  2B0F               	goto	u2491
  4201     0B0E  2B10               	goto	u2490
  4202     0B0F                     u2491:
  4203     0B0F  2B19               	goto	l2158
  4204     0B10                     u2490:
  4205     0B10                     l2156:
  4206     0B10  087B               	movf	___fladd@grs,w
  4207     0B11  1283               	bcf	3,5	;RP0=0, select bank0
  4208     0B12  1303               	bcf	3,6	;RP1=0, select bank0
  4209     0B13  00A0               	movwf	??___fladd
  4210     0B14  1003               	clrc
  4211     0B15  0C20               	rrf	??___fladd,w
  4212     0B16  3801               	iorlw	1
  4213     0B17  00FB               	movwf	___fladd@grs
  4214     0B18  2B1B               	goto	l2160
  4215     0B19                     l2158:
  4216     0B19  1003               	clrc
  4217     0B1A  0CFB               	rrf	___fladd@grs,f
  4218     0B1B                     l2160:
  4219     0B1B  1C70               	btfss	___fladd@b,0
  4220     0B1C  2B1E               	goto	u2501
  4221     0B1D  2B1F               	goto	u2500
  4222     0B1E                     u2501:
  4223     0B1E  2B20               	goto	l2164
  4224     0B1F                     u2500:
  4225     0B1F                     l2162:
  4226     0B1F  17FB               	bsf	___fladd@grs,7
  4227     0B20                     l2164:
  4228     0B20  3001               	movlw	1
  4229     0B21  1283               	bcf	3,5	;RP0=0, select bank0
  4230     0B22  1303               	bcf	3,6	;RP1=0, select bank0
  4231     0B23  00A0               	movwf	??___fladd
  4232     0B24                     u2515:
  4233     0B24  0D73               	rlf	___fladd@b+3,w
  4234     0B25  0CF3               	rrf	___fladd@b+3,f
  4235     0B26  0CF2               	rrf	___fladd@b+2,f
  4236     0B27  0CF1               	rrf	___fladd@b+1,f
  4237     0B28  0CF0               	rrf	___fladd@b,f
  4238     0B29  0BA0               	decfsz	??___fladd& (0+127),f
  4239     0B2A  2B24               	goto	u2515
  4240     0B2B                     l2166:
  4241     0B2B  3001               	movlw	1
  4242     0B2C  00FF               	movwf	btemp+1
  4243     0B2D  087F               	movf	btemp+1,w
  4244     0B2E  07FA               	addwf	___fladd@bexp,f
  4245     0B2F                     l2168:
  4246     0B2F  0879               	movf	___fladd@aexp,w
  4247     0B30  027A               	subwf	___fladd@bexp,w
  4248     0B31  1C03               	skipc
  4249     0B32  2B34               	goto	u2521
  4250     0B33  2B35               	goto	u2520
  4251     0B34                     u2521:
  4252     0B34  2B0C               	goto	l448
  4253     0B35                     u2520:
  4254     0B35                     l446:
  4255     0B35  1B78               	btfsc	___fladd@signs,6
  4256     0B36  2B38               	goto	u2531
  4257     0B37  2B39               	goto	u2530
  4258     0B38                     u2531:
  4259     0B38  2B86               	goto	l2194
  4260     0B39                     u2530:
  4261     0B39                     l2170:
  4262     0B39  087A               	movf	___fladd@bexp,w
  4263     0B3A  1D03               	btfss	3,2
  4264     0B3B  2B3D               	goto	u2541
  4265     0B3C  2B3E               	goto	u2540
  4266     0B3D                     u2541:
  4267     0B3D  2B47               	goto	l2176
  4268     0B3E                     u2540:
  4269     0B3E                     l2172:
  4270     0B3E  3000               	movlw	0
  4271     0B3F  00F3               	movwf	?___fladd+3
  4272     0B40  3000               	movlw	0
  4273     0B41  00F2               	movwf	?___fladd+2
  4274     0B42  3000               	movlw	0
  4275     0B43  00F1               	movwf	?___fladd+1
  4276     0B44  3000               	movlw	0
  4277     0B45  00F0               	movwf	?___fladd
  4278     0B46  2CBA               	goto	l455
  4279     0B47                     l2176:
  4280     0B47  0874               	movf	___fladd@a,w
  4281     0B48  07F0               	addwf	___fladd@b,f
  4282     0B49  0875               	movf	___fladd@a+1,w
  4283     0B4A  1103               	clrz
  4284     0B4B  1803               	skipnc
  4285     0B4C  3E01               	addlw	1
  4286     0B4D  1903               	skipnz
  4287     0B4E  2B50               	goto	u2551
  4288     0B4F  07F1               	addwf	___fladd@b+1,f
  4289     0B50                     u2551:
  4290     0B50  0876               	movf	___fladd@a+2,w
  4291     0B51  1103               	clrz
  4292     0B52  1803               	skipnc
  4293     0B53  3E01               	addlw	1
  4294     0B54  1903               	skipnz
  4295     0B55  2B57               	goto	u2552
  4296     0B56  07F2               	addwf	___fladd@b+2,f
  4297     0B57                     u2552:
  4298     0B57  0877               	movf	___fladd@a+3,w
  4299     0B58  1103               	clrz
  4300     0B59  1803               	skipnc
  4301     0B5A  3E01               	addlw	1
  4302     0B5B  1903               	skipnz
  4303     0B5C  2B5E               	goto	u2553
  4304     0B5D  07F3               	addwf	___fladd@b+3,f
  4305     0B5E                     u2553:
  4306     0B5E                     l2178:
  4307     0B5E  1C73               	btfss	___fladd@b+3,0
  4308     0B5F  2B61               	goto	u2561
  4309     0B60  2B62               	goto	u2560
  4310     0B61                     u2561:
  4311     0B61  2C3E               	goto	l2230
  4312     0B62                     u2560:
  4313     0B62                     l2180:
  4314     0B62  1C7B               	btfss	___fladd@grs,0
  4315     0B63  2B65               	goto	u2571
  4316     0B64  2B66               	goto	u2570
  4317     0B65                     u2571:
  4318     0B65  2B6F               	goto	l2184
  4319     0B66                     u2570:
  4320     0B66                     l2182:
  4321     0B66  087B               	movf	___fladd@grs,w
  4322     0B67  1283               	bcf	3,5	;RP0=0, select bank0
  4323     0B68  1303               	bcf	3,6	;RP1=0, select bank0
  4324     0B69  00A0               	movwf	??___fladd
  4325     0B6A  1003               	clrc
  4326     0B6B  0C20               	rrf	??___fladd,w
  4327     0B6C  3801               	iorlw	1
  4328     0B6D  00FB               	movwf	___fladd@grs
  4329     0B6E  2B71               	goto	l2186
  4330     0B6F                     l2184:
  4331     0B6F  1003               	clrc
  4332     0B70  0CFB               	rrf	___fladd@grs,f
  4333     0B71                     l2186:
  4334     0B71  1C70               	btfss	___fladd@b,0
  4335     0B72  2B74               	goto	u2581
  4336     0B73  2B75               	goto	u2580
  4337     0B74                     u2581:
  4338     0B74  2B76               	goto	l2190
  4339     0B75                     u2580:
  4340     0B75                     l2188:
  4341     0B75  17FB               	bsf	___fladd@grs,7
  4342     0B76                     l2190:
  4343     0B76  3001               	movlw	1
  4344     0B77  1283               	bcf	3,5	;RP0=0, select bank0
  4345     0B78  1303               	bcf	3,6	;RP1=0, select bank0
  4346     0B79  00A0               	movwf	??___fladd
  4347     0B7A                     u2595:
  4348     0B7A  0D73               	rlf	___fladd@b+3,w
  4349     0B7B  0CF3               	rrf	___fladd@b+3,f
  4350     0B7C  0CF2               	rrf	___fladd@b+2,f
  4351     0B7D  0CF1               	rrf	___fladd@b+1,f
  4352     0B7E  0CF0               	rrf	___fladd@b,f
  4353     0B7F  0BA0               	decfsz	??___fladd& (0+127),f
  4354     0B80  2B7A               	goto	u2595
  4355     0B81                     l2192:
  4356     0B81  3001               	movlw	1
  4357     0B82  00FF               	movwf	btemp+1
  4358     0B83  087F               	movf	btemp+1,w
  4359     0B84  07FA               	addwf	___fladd@bexp,f
  4360     0B85  2C3E               	goto	l2230
  4361     0B86                     l2194:
  4362     0B86  0873               	movf	___fladd@b+3,w
  4363     0B87  3A80               	xorlw	128
  4364     0B88  00FF               	movwf	btemp+1
  4365     0B89  0877               	movf	___fladd@a+3,w
  4366     0B8A  3A80               	xorlw	128
  4367     0B8B  027F               	subwf	btemp+1,w
  4368     0B8C  1D03               	skipz
  4369     0B8D  2B98               	goto	u2603
  4370     0B8E  0876               	movf	___fladd@a+2,w
  4371     0B8F  0272               	subwf	___fladd@b+2,w
  4372     0B90  1D03               	skipz
  4373     0B91  2B98               	goto	u2603
  4374     0B92  0875               	movf	___fladd@a+1,w
  4375     0B93  0271               	subwf	___fladd@b+1,w
  4376     0B94  1D03               	skipz
  4377     0B95  2B98               	goto	u2603
  4378     0B96  0874               	movf	___fladd@a,w
  4379     0B97  0270               	subwf	___fladd@b,w
  4380     0B98                     u2603:
  4381     0B98  1803               	skipnc
  4382     0B99  2B9B               	goto	u2601
  4383     0B9A  2B9C               	goto	u2600
  4384     0B9B                     u2601:
  4385     0B9B  2BF6               	goto	l2206
  4386     0B9C                     u2600:
  4387     0B9C                     l2196:
  4388     0B9C  30FF               	movlw	255
  4389     0B9D  1283               	bcf	3,5	;RP0=0, select bank0
  4390     0B9E  1303               	bcf	3,6	;RP1=0, select bank0
  4391     0B9F  00A0               	movwf	??___fladd
  4392     0BA0  30FF               	movlw	255
  4393     0BA1  00A1               	movwf	??___fladd+1
  4394     0BA2  30FF               	movlw	255
  4395     0BA3  00A2               	movwf	??___fladd+2
  4396     0BA4  30FF               	movlw	255
  4397     0BA5  00A3               	movwf	??___fladd+3
  4398     0BA6  0874               	movf	___fladd@a,w
  4399     0BA7  00A4               	movwf	??___fladd+4
  4400     0BA8  0875               	movf	___fladd@a+1,w
  4401     0BA9  00A5               	movwf	??___fladd+5
  4402     0BAA  0876               	movf	___fladd@a+2,w
  4403     0BAB  00A6               	movwf	??___fladd+6
  4404     0BAC  0877               	movf	___fladd@a+3,w
  4405     0BAD  00A7               	movwf	??___fladd+7
  4406     0BAE  0870               	movf	___fladd@b,w
  4407     0BAF  02A4               	subwf	??___fladd+4,f
  4408     0BB0  0871               	movf	___fladd@b+1,w
  4409     0BB1  1C03               	skipc
  4410     0BB2  0F71               	incfsz	___fladd@b+1,w
  4411     0BB3  2BB5               	goto	u2611
  4412     0BB4  2BB6               	goto	u2612
  4413     0BB5                     u2611:
  4414     0BB5  02A5               	subwf	??___fladd+5,f
  4415     0BB6                     u2612:
  4416     0BB6  0872               	movf	___fladd@b+2,w
  4417     0BB7  1C03               	skipc
  4418     0BB8  0F72               	incfsz	___fladd@b+2,w
  4419     0BB9  2BBB               	goto	u2613
  4420     0BBA  2BBC               	goto	u2614
  4421     0BBB                     u2613:
  4422     0BBB  02A6               	subwf	??___fladd+6,f
  4423     0BBC                     u2614:
  4424     0BBC  0873               	movf	___fladd@b+3,w
  4425     0BBD  1C03               	skipc
  4426     0BBE  0F73               	incfsz	___fladd@b+3,w
  4427     0BBF  2BC1               	goto	u2615
  4428     0BC0  2BC2               	goto	u2616
  4429     0BC1                     u2615:
  4430     0BC1  02A7               	subwf	??___fladd+7,f
  4431     0BC2                     u2616:
  4432     0BC2  0824               	movf	??___fladd+4,w
  4433     0BC3  07A0               	addwf	??___fladd,f
  4434     0BC4  0825               	movf	??___fladd+5,w
  4435     0BC5  1803               	skipnc
  4436     0BC6  0F25               	incfsz	??___fladd+5,w
  4437     0BC7  2BC9               	goto	u2620
  4438     0BC8  2BCA               	goto	u2621
  4439     0BC9                     u2620:
  4440     0BC9  07A1               	addwf	??___fladd+1,f
  4441     0BCA                     u2621:
  4442     0BCA  0826               	movf	??___fladd+6,w
  4443     0BCB  1803               	skipnc
  4444     0BCC  0F26               	incfsz	??___fladd+6,w
  4445     0BCD  2BCF               	goto	u2622
  4446     0BCE  2BD0               	goto	u2623
  4447     0BCF                     u2622:
  4448     0BCF  07A2               	addwf	??___fladd+2,f
  4449     0BD0                     u2623:
  4450     0BD0  0827               	movf	??___fladd+7,w
  4451     0BD1  1803               	skipnc
  4452     0BD2  0A27               	incf	??___fladd+7,w
  4453     0BD3  07A3               	addwf	??___fladd+3,f
  4454     0BD4  0823               	movf	??___fladd+3,w
  4455     0BD5  00F3               	movwf	___fladd@b+3
  4456     0BD6  0822               	movf	??___fladd+2,w
  4457     0BD7  00F2               	movwf	___fladd@b+2
  4458     0BD8  0821               	movf	??___fladd+1,w
  4459     0BD9  00F1               	movwf	___fladd@b+1
  4460     0BDA  0820               	movf	??___fladd,w
  4461     0BDB  00F0               	movwf	___fladd@b
  4462     0BDC                     l2198:
  4463     0BDC  3080               	movlw	128
  4464     0BDD  00FF               	movwf	btemp+1
  4465     0BDE  087F               	movf	btemp+1,w
  4466     0BDF  06F8               	xorwf	___fladd@signs,f
  4467     0BE0                     l2200:
  4468     0BE0  09FB               	comf	___fladd@grs,f
  4469     0BE1  0AFB               	incf	___fladd@grs,f
  4470     0BE2                     l2202:
  4471     0BE2  087B               	movf	___fladd@grs,w
  4472     0BE3  1D03               	btfss	3,2
  4473     0BE4  2BE6               	goto	u2631
  4474     0BE5  2BE7               	goto	u2630
  4475     0BE6                     u2631:
  4476     0BE6  2C04               	goto	l463
  4477     0BE7                     u2630:
  4478     0BE7                     l2204:
  4479     0BE7  3001               	movlw	1
  4480     0BE8  07F0               	addwf	___fladd@b,f
  4481     0BE9  3000               	movlw	0
  4482     0BEA  1803               	skipnc
  4483     0BEB  3001               	movlw	1
  4484     0BEC  07F1               	addwf	___fladd@b+1,f
  4485     0BED  3000               	movlw	0
  4486     0BEE  1803               	skipnc
  4487     0BEF  3001               	movlw	1
  4488     0BF0  07F2               	addwf	___fladd@b+2,f
  4489     0BF1  3000               	movlw	0
  4490     0BF2  1803               	skipnc
  4491     0BF3  3001               	movlw	1
  4492     0BF4  07F3               	addwf	___fladd@b+3,f
  4493     0BF5  2C04               	goto	l463
  4494     0BF6                     l2206:
  4495     0BF6  0874               	movf	___fladd@a,w
  4496     0BF7  02F0               	subwf	___fladd@b,f
  4497     0BF8  0875               	movf	___fladd@a+1,w
  4498     0BF9  1C03               	skipc
  4499     0BFA  0F75               	incfsz	___fladd@a+1,w
  4500     0BFB  02F1               	subwf	___fladd@b+1,f
  4501     0BFC  0876               	movf	___fladd@a+2,w
  4502     0BFD  1C03               	skipc
  4503     0BFE  0F76               	incfsz	___fladd@a+2,w
  4504     0BFF  02F2               	subwf	___fladd@b+2,f
  4505     0C00  0877               	movf	___fladd@a+3,w
  4506     0C01  1C03               	skipc
  4507     0C02  0F77               	incfsz	___fladd@a+3,w
  4508     0C03  02F3               	subwf	___fladd@b+3,f
  4509     0C04                     l463:
  4510     0C04  0873               	movf	___fladd@b+3,w
  4511     0C05  0472               	iorwf	___fladd@b+2,w
  4512     0C06  0471               	iorwf	___fladd@b+1,w
  4513     0C07  0470               	iorwf	___fladd@b,w
  4514     0C08  1D03               	skipz
  4515     0C09  2C0B               	goto	u2641
  4516     0C0A  2C0C               	goto	u2640
  4517     0C0B                     u2641:
  4518     0C0B  2C3A               	goto	l2228
  4519     0C0C                     u2640:
  4520     0C0C                     l2208:
  4521     0C0C  087B               	movf	___fladd@grs,w
  4522     0C0D  1D03               	btfss	3,2
  4523     0C0E  2C10               	goto	u2651
  4524     0C0F  2C11               	goto	u2650
  4525     0C10                     u2651:
  4526     0C10  2C3A               	goto	l2228
  4527     0C11                     u2650:
  4528     0C11                     l2210:
  4529     0C11  3000               	movlw	0
  4530     0C12  00F3               	movwf	?___fladd+3
  4531     0C13  3000               	movlw	0
  4532     0C14  00F2               	movwf	?___fladd+2
  4533     0C15  3000               	movlw	0
  4534     0C16  00F1               	movwf	?___fladd+1
  4535     0C17  3000               	movlw	0
  4536     0C18  00F0               	movwf	?___fladd
  4537     0C19  2CBA               	goto	l455
  4538     0C1A                     l2214:
  4539     0C1A  3001               	movlw	1
  4540     0C1B  1283               	bcf	3,5	;RP0=0, select bank0
  4541     0C1C  1303               	bcf	3,6	;RP1=0, select bank0
  4542     0C1D  00A0               	movwf	??___fladd
  4543     0C1E                     u2665:
  4544     0C1E  1003               	clrc
  4545     0C1F  0DF0               	rlf	___fladd@b,f
  4546     0C20  0DF1               	rlf	___fladd@b+1,f
  4547     0C21  0DF2               	rlf	___fladd@b+2,f
  4548     0C22  0DF3               	rlf	___fladd@b+3,f
  4549     0C23  0BA0               	decfsz	??___fladd,f
  4550     0C24  2C1E               	goto	u2665
  4551     0C25                     l2216:
  4552     0C25  1FFB               	btfss	___fladd@grs,7
  4553     0C26  2C28               	goto	u2671
  4554     0C27  2C29               	goto	u2670
  4555     0C28                     u2671:
  4556     0C28  2C2A               	goto	l467
  4557     0C29                     u2670:
  4558     0C29                     l2218:
  4559     0C29  1470               	bsf	___fladd@b,0
  4560     0C2A                     l467:
  4561     0C2A  1C7B               	btfss	___fladd@grs,0
  4562     0C2B  2C2D               	goto	u2681
  4563     0C2C  2C2E               	goto	u2680
  4564     0C2D                     u2681:
  4565     0C2D  2C31               	goto	l2222
  4566     0C2E                     u2680:
  4567     0C2E                     l2220:
  4568     0C2E  1403               	setc
  4569     0C2F  0DFB               	rlf	___fladd@grs,f
  4570     0C30  2C33               	goto	l2224
  4571     0C31                     l2222:
  4572     0C31  1003               	clrc
  4573     0C32  0DFB               	rlf	___fladd@grs,f
  4574     0C33                     l2224:
  4575     0C33  087A               	movf	___fladd@bexp,w
  4576     0C34  1903               	btfsc	3,2
  4577     0C35  2C37               	goto	u2691
  4578     0C36  2C38               	goto	u2690
  4579     0C37                     u2691:
  4580     0C37  2C3A               	goto	l2228
  4581     0C38                     u2690:
  4582     0C38                     l2226:
  4583     0C38  3001               	movlw	1
  4584     0C39  02FA               	subwf	___fladd@bexp,f
  4585     0C3A                     l2228:
  4586     0C3A  1FF2               	btfss	___fladd@b+2,7
  4587     0C3B  2C3D               	goto	u2701
  4588     0C3C  2C3E               	goto	u2700
  4589     0C3D                     u2701:
  4590     0C3D  2C1A               	goto	l2214
  4591     0C3E                     u2700:
  4592     0C3E                     l2230:
  4593     0C3E  01F9               	clrf	___fladd@aexp
  4594     0C3F                     l2232:
  4595     0C3F  1FFB               	btfss	___fladd@grs,7
  4596     0C40  2C42               	goto	u2711
  4597     0C41  2C43               	goto	u2710
  4598     0C42                     u2711:
  4599     0C42  2C51               	goto	l2240
  4600     0C43                     u2710:
  4601     0C43                     l2234:
  4602     0C43  087B               	movf	___fladd@grs,w
  4603     0C44  397F               	andlw	127
  4604     0C45  1903               	btfsc	3,2
  4605     0C46  2C48               	goto	u2721
  4606     0C47  2C49               	goto	u2720
  4607     0C48                     u2721:
  4608     0C48  2C4C               	goto	l473
  4609     0C49                     u2720:
  4610     0C49                     l2236:
  4611     0C49  01F9               	clrf	___fladd@aexp
  4612     0C4A  0AF9               	incf	___fladd@aexp,f
  4613     0C4B  2C51               	goto	l2240
  4614     0C4C                     l473:
  4615     0C4C  1C70               	btfss	___fladd@b,0
  4616     0C4D  2C4F               	goto	u2731
  4617     0C4E  2C50               	goto	u2730
  4618     0C4F                     u2731:
  4619     0C4F  2C51               	goto	l2240
  4620     0C50                     u2730:
  4621     0C50  2C49               	goto	l2236
  4622     0C51                     l2240:
  4623     0C51  0879               	movf	___fladd@aexp,w
  4624     0C52  1903               	btfsc	3,2
  4625     0C53  2C55               	goto	u2741
  4626     0C54  2C56               	goto	u2740
  4627     0C55                     u2741:
  4628     0C55  2C8C               	goto	l2250
  4629     0C56                     u2740:
  4630     0C56                     l2242:
  4631     0C56  3001               	movlw	1
  4632     0C57  07F0               	addwf	___fladd@b,f
  4633     0C58  3000               	movlw	0
  4634     0C59  1803               	skipnc
  4635     0C5A  3001               	movlw	1
  4636     0C5B  07F1               	addwf	___fladd@b+1,f
  4637     0C5C  3000               	movlw	0
  4638     0C5D  1803               	skipnc
  4639     0C5E  3001               	movlw	1
  4640     0C5F  07F2               	addwf	___fladd@b+2,f
  4641     0C60  3000               	movlw	0
  4642     0C61  1803               	skipnc
  4643     0C62  3001               	movlw	1
  4644     0C63  07F3               	addwf	___fladd@b+3,f
  4645     0C64                     l2244:
  4646     0C64  1C73               	btfss	___fladd@b+3,0
  4647     0C65  2C67               	goto	u2751
  4648     0C66  2C68               	goto	u2750
  4649     0C67                     u2751:
  4650     0C67  2C8C               	goto	l2250
  4651     0C68                     u2750:
  4652     0C68                     l2246:
  4653     0C68  0870               	movf	___fladd@b,w
  4654     0C69  1283               	bcf	3,5	;RP0=0, select bank0
  4655     0C6A  1303               	bcf	3,6	;RP1=0, select bank0
  4656     0C6B  00A0               	movwf	??___fladd
  4657     0C6C  0871               	movf	___fladd@b+1,w
  4658     0C6D  00A1               	movwf	??___fladd+1
  4659     0C6E  0872               	movf	___fladd@b+2,w
  4660     0C6F  00A2               	movwf	??___fladd+2
  4661     0C70  0873               	movf	___fladd@b+3,w
  4662     0C71  00A3               	movwf	??___fladd+3
  4663     0C72  3001               	movlw	1
  4664     0C73  00A4               	movwf	??___fladd+4
  4665     0C74                     u2765:
  4666     0C74  0D23               	rlf	??___fladd+3,w
  4667     0C75  0CA3               	rrf	??___fladd+3,f
  4668     0C76  0CA2               	rrf	??___fladd+2,f
  4669     0C77  0CA1               	rrf	??___fladd+1,f
  4670     0C78  0CA0               	rrf	??___fladd,f
  4671     0C79                     u2760:
  4672     0C79  0BA4               	decfsz	??___fladd+4,f
  4673     0C7A  2C74               	goto	u2765
  4674     0C7B  0823               	movf	??___fladd+3,w
  4675     0C7C  00F3               	movwf	___fladd@b+3
  4676     0C7D  0822               	movf	??___fladd+2,w
  4677     0C7E  00F2               	movwf	___fladd@b+2
  4678     0C7F  0821               	movf	??___fladd+1,w
  4679     0C80  00F1               	movwf	___fladd@b+1
  4680     0C81  0820               	movf	??___fladd,w
  4681     0C82  00F0               	movwf	___fladd@b
  4682     0C83  0A7A               	incf	___fladd@bexp,w
  4683     0C84  1903               	btfsc	3,2
  4684     0C85  2C87               	goto	u2771
  4685     0C86  2C88               	goto	u2770
  4686     0C87                     u2771:
  4687     0C87  2C8C               	goto	l2250
  4688     0C88                     u2770:
  4689     0C88                     l2248:
  4690     0C88  3001               	movlw	1
  4691     0C89  00FF               	movwf	btemp+1
  4692     0C8A  087F               	movf	btemp+1,w
  4693     0C8B  07FA               	addwf	___fladd@bexp,f
  4694     0C8C                     l2250:
  4695     0C8C  0A7A               	incf	___fladd@bexp,w
  4696     0C8D  1903               	btfsc	3,2
  4697     0C8E  2C90               	goto	u2781
  4698     0C8F  2C91               	goto	u2780
  4699     0C90                     u2781:
  4700     0C90  2C96               	goto	l2254
  4701     0C91                     u2780:
  4702     0C91                     l2252:
  4703     0C91  087A               	movf	___fladd@bexp,w
  4704     0C92  1D03               	btfss	3,2
  4705     0C93  2C95               	goto	u2791
  4706     0C94  2C96               	goto	u2790
  4707     0C95                     u2791:
  4708     0C95  2CA4               	goto	l2260
  4709     0C96                     u2790:
  4710     0C96                     l2254:
  4711     0C96  3000               	movlw	0
  4712     0C97  00F3               	movwf	___fladd@b+3
  4713     0C98  3000               	movlw	0
  4714     0C99  00F2               	movwf	___fladd@b+2
  4715     0C9A  3000               	movlw	0
  4716     0C9B  00F1               	movwf	___fladd@b+1
  4717     0C9C  3000               	movlw	0
  4718     0C9D  00F0               	movwf	___fladd@b
  4719     0C9E                     l2256:
  4720     0C9E  087A               	movf	___fladd@bexp,w
  4721     0C9F  1D03               	btfss	3,2
  4722     0CA0  2CA2               	goto	u2801
  4723     0CA1  2CA3               	goto	u2800
  4724     0CA2                     u2801:
  4725     0CA2  2CA4               	goto	l2260
  4726     0CA3                     u2800:
  4727     0CA3                     l2258:
  4728     0CA3  01F8               	clrf	___fladd@signs
  4729     0CA4                     l2260:
  4730     0CA4  1C7A               	btfss	___fladd@bexp,0
  4731     0CA5  2CA7               	goto	u2811
  4732     0CA6  2CA8               	goto	u2810
  4733     0CA7                     u2811:
  4734     0CA7  2CAA               	goto	l2264
  4735     0CA8                     u2810:
  4736     0CA8                     l2262:
  4737     0CA8  17F2               	bsf	___fladd@b+2,7
  4738     0CA9  2CAE               	goto	l2266
  4739     0CAA                     l2264:
  4740     0CAA  307F               	movlw	127
  4741     0CAB  00FF               	movwf	btemp+1
  4742     0CAC  087F               	movf	btemp+1,w
  4743     0CAD  05F2               	andwf	___fladd@b+2,f
  4744     0CAE                     l2266:
  4745     0CAE  087A               	movf	___fladd@bexp,w
  4746     0CAF  1283               	bcf	3,5	;RP0=0, select bank0
  4747     0CB0  1303               	bcf	3,6	;RP1=0, select bank0
  4748     0CB1  00A0               	movwf	??___fladd
  4749     0CB2  1003               	clrc
  4750     0CB3  0C20               	rrf	??___fladd,w
  4751     0CB4  00F3               	movwf	___fladd@b+3
  4752     0CB5                     l2268:
  4753     0CB5  1FF8               	btfss	___fladd@signs,7
  4754     0CB6  2CB8               	goto	u2821
  4755     0CB7  2CB9               	goto	u2820
  4756     0CB8                     u2821:
  4757     0CB8  2CBA               	goto	l485
  4758     0CB9                     u2820:
  4759     0CB9                     l2270:
  4760     0CB9  17F3               	bsf	___fladd@b+3,7
  4761     0CBA                     l485:
  4762     0CBA                     l455:
  4763     0CBA  0008               	return
  4764     0CBB                     __end_of___fladd:
  4765                           
  4766                           	psect	text19
  4767     0801                     __ptext19:	
  4768 ;; *************** function ___flneg *****************
  4769 ;; Defined at:
  4770 ;;		line 15 in file "C:\Program Files\Microchip\xc8\v2.45\pic\sources\c99\common\flneg.c"
  4771 ;; Parameters:    Size  Location     Type
  4772 ;;  f1              4    0[COMMON] unsigned char 
  4773 ;; Auto vars:     Size  Location     Type
  4774 ;;		None
  4775 ;; Return value:  Size  Location     Type
  4776 ;;                  4    0[COMMON] unsigned char 
  4777 ;; Registers used:
  4778 ;;		wreg
  4779 ;; Tracked objects:
  4780 ;;		On entry : 0/0
  4781 ;;		On exit  : 0/0
  4782 ;;		Unchanged: 0/0
  4783 ;; Data sizes:     COMMON   BANK0   BANK1   BANK3   BANK2
  4784 ;;      Params:         4       0       0       0       0
  4785 ;;      Locals:         0       0       0       0       0
  4786 ;;      Temps:          0       0       0       0       0
  4787 ;;      Totals:         4       0       0       0       0
  4788 ;;Total ram usage:        4 bytes
  4789 ;; Hardware stack levels used: 1
  4790 ;; This function calls:
  4791 ;;		Nothing
  4792 ;; This function is called by:
  4793 ;;		_efgtoa
  4794 ;; This function uses a non-reentrant model
  4795 ;;
  4796                           
  4797     0801                     ___flneg:	
  4798                           ;psect for function ___flneg
  4799                           
  4800     0801                     l2340:	
  4801                           ;incstack = 0
  4802                           ; Regs used in ___flneg: [wreg]
  4803                           
  4804     0801  0873               	movf	___flneg@f1+3,w
  4805     0802  0472               	iorwf	___flneg@f1+2,w
  4806     0803  0471               	iorwf	___flneg@f1+1,w
  4807     0804  0470               	iorwf	___flneg@f1,w
  4808     0805  1903               	skipnz
  4809     0806  2808               	goto	u3011
  4810     0807  2809               	goto	u3010
  4811     0808                     u3011:
  4812     0808  280B               	goto	l2344
  4813     0809                     u3010:
  4814     0809                     l2342:
  4815     0809  3080               	movlw	128
  4816     080A  06F3               	xorwf	___flneg@f1+3,f
  4817     080B                     l2344:
  4818     080B                     l331:
  4819     080B  0008               	return
  4820     080C                     __end_of___flneg:
  4821                           
  4822                           	psect	text20
  4823     0CBB                     __ptext20:	
  4824 ;; *************** function ___flmul *****************
  4825 ;; Defined at:
  4826 ;;		line 8 in file "C:\Program Files\Microchip\xc8\v2.45\pic\sources\c99\common\sprcmul.c"
  4827 ;; Parameters:    Size  Location     Type
  4828 ;;  b               4    0[BANK0 ] unsigned char 
  4829 ;;  a               4    4[BANK0 ] unsigned char 
  4830 ;; Auto vars:     Size  Location     Type
  4831 ;;  prod            4   20[BANK0 ] struct .
  4832 ;;  grs             4   14[BANK0 ] unsigned long 
  4833 ;;  temp            2   24[BANK0 ] struct .
  4834 ;;  bexp            1   19[BANK0 ] unsigned char 
  4835 ;;  aexp            1   18[BANK0 ] unsigned char 
  4836 ;;  sign            1   13[BANK0 ] unsigned char 
  4837 ;; Return value:  Size  Location     Type
  4838 ;;                  4    0[BANK0 ] unsigned char 
  4839 ;; Registers used:
  4840 ;;		wreg, status,2, status,0, btemp+1, pclath, cstack
  4841 ;; Tracked objects:
  4842 ;;		On entry : 0/0
  4843 ;;		On exit  : 0/0
  4844 ;;		Unchanged: 0/0
  4845 ;; Data sizes:     COMMON   BANK0   BANK1   BANK3   BANK2
  4846 ;;      Params:         0       8       0       0       0
  4847 ;;      Locals:         0      13       0       0       0
  4848 ;;      Temps:          0       5       0       0       0
  4849 ;;      Totals:         0      26       0       0       0
  4850 ;;Total ram usage:       26 bytes
  4851 ;; Hardware stack levels used: 1
  4852 ;; Hardware stack levels required when called: 1
  4853 ;; This function calls:
  4854 ;;		__Umul8_16
  4855 ;; This function is called by:
  4856 ;;		_main
  4857 ;;		_efgtoa
  4858 ;; This function uses a non-reentrant model
  4859 ;;
  4860                           
  4861     0CBB                     ___flmul:	
  4862                           ;psect for function ___flmul
  4863                           
  4864     0CBB                     l2538:	
  4865                           ;incstack = 0
  4866                           ; Regs used in ___flmul: [wreg+status,2+status,0+btemp+1+pclath+cstack]
  4867                           
  4868     0CBB  1283               	bcf	3,5	;RP0=0, select bank0
  4869     0CBC  1303               	bcf	3,6	;RP1=0, select bank0
  4870     0CBD  0823               	movf	___flmul@b+3,w
  4871     0CBE  3980               	andlw	128
  4872     0CBF  00AD               	movwf	___flmul@sign
  4873     0CC0                     l2540:
  4874     0CC0  0823               	movf	___flmul@b+3,w
  4875     0CC1  00A8               	movwf	??___flmul
  4876     0CC2  0728               	addwf	??___flmul,w
  4877     0CC3  00B3               	movwf	___flmul@bexp
  4878     0CC4                     l2542:
  4879     0CC4  1FA2               	btfss	___flmul@b+2,7
  4880     0CC5  2CC7               	goto	u3421
  4881     0CC6  2CC8               	goto	u3420
  4882     0CC7                     u3421:
  4883     0CC7  2CC9               	goto	l2546
  4884     0CC8                     u3420:
  4885     0CC8                     l2544:
  4886     0CC8  1433               	bsf	___flmul@bexp,0
  4887     0CC9                     l2546:
  4888     0CC9  0833               	movf	___flmul@bexp,w
  4889     0CCA  1903               	btfsc	3,2
  4890     0CCB  2CCD               	goto	u3431
  4891     0CCC  2CCE               	goto	u3430
  4892     0CCD                     u3431:
  4893     0CCD  2CDD               	goto	l2554
  4894     0CCE                     u3430:
  4895     0CCE                     l2548:
  4896     0CCE  0A33               	incf	___flmul@bexp,w
  4897     0CCF  1D03               	btfss	3,2
  4898     0CD0  2CD2               	goto	u3441
  4899     0CD1  2CD3               	goto	u3440
  4900     0CD2                     u3441:
  4901     0CD2  2CDB               	goto	l2552
  4902     0CD3                     u3440:
  4903     0CD3                     l2550:
  4904     0CD3  3000               	movlw	0
  4905     0CD4  00A3               	movwf	___flmul@b+3
  4906     0CD5  3000               	movlw	0
  4907     0CD6  00A2               	movwf	___flmul@b+2
  4908     0CD7  3000               	movlw	0
  4909     0CD8  00A1               	movwf	___flmul@b+1
  4910     0CD9  3000               	movlw	0
  4911     0CDA  00A0               	movwf	___flmul@b
  4912     0CDB                     l2552:
  4913     0CDB  17A2               	bsf	___flmul@b+2,7
  4914     0CDC  2CE5               	goto	l2556
  4915     0CDD                     l2554:
  4916     0CDD  3000               	movlw	0
  4917     0CDE  00A3               	movwf	___flmul@b+3
  4918     0CDF  3000               	movlw	0
  4919     0CE0  00A2               	movwf	___flmul@b+2
  4920     0CE1  3000               	movlw	0
  4921     0CE2  00A1               	movwf	___flmul@b+1
  4922     0CE3  3000               	movlw	0
  4923     0CE4  00A0               	movwf	___flmul@b
  4924     0CE5                     l2556:
  4925     0CE5  0827               	movf	___flmul@a+3,w
  4926     0CE6  3980               	andlw	128
  4927     0CE7  00FF               	movwf	btemp+1
  4928     0CE8  087F               	movf	btemp+1,w
  4929     0CE9  06AD               	xorwf	___flmul@sign,f
  4930     0CEA                     l2558:
  4931     0CEA  0827               	movf	___flmul@a+3,w
  4932     0CEB  00A8               	movwf	??___flmul
  4933     0CEC  0728               	addwf	??___flmul,w
  4934     0CED  00B2               	movwf	___flmul@aexp
  4935     0CEE                     l2560:
  4936     0CEE  1FA6               	btfss	___flmul@a+2,7
  4937     0CEF  2CF1               	goto	u3451
  4938     0CF0  2CF2               	goto	u3450
  4939     0CF1                     u3451:
  4940     0CF1  2CF3               	goto	l2564
  4941     0CF2                     u3450:
  4942     0CF2                     l2562:
  4943     0CF2  1432               	bsf	___flmul@aexp,0
  4944     0CF3                     l2564:
  4945     0CF3  0832               	movf	___flmul@aexp,w
  4946     0CF4  1903               	btfsc	3,2
  4947     0CF5  2CF7               	goto	u3461
  4948     0CF6  2CF8               	goto	u3460
  4949     0CF7                     u3461:
  4950     0CF7  2D07               	goto	l2572
  4951     0CF8                     u3460:
  4952     0CF8                     l2566:
  4953     0CF8  0A32               	incf	___flmul@aexp,w
  4954     0CF9  1D03               	btfss	3,2
  4955     0CFA  2CFC               	goto	u3471
  4956     0CFB  2CFD               	goto	u3470
  4957     0CFC                     u3471:
  4958     0CFC  2D05               	goto	l2570
  4959     0CFD                     u3470:
  4960     0CFD                     l2568:
  4961     0CFD  3000               	movlw	0
  4962     0CFE  00A7               	movwf	___flmul@a+3
  4963     0CFF  3000               	movlw	0
  4964     0D00  00A6               	movwf	___flmul@a+2
  4965     0D01  3000               	movlw	0
  4966     0D02  00A5               	movwf	___flmul@a+1
  4967     0D03  3000               	movlw	0
  4968     0D04  00A4               	movwf	___flmul@a
  4969     0D05                     l2570:
  4970     0D05  17A6               	bsf	___flmul@a+2,7
  4971     0D06  2D0F               	goto	l2574
  4972     0D07                     l2572:
  4973     0D07  3000               	movlw	0
  4974     0D08  00A7               	movwf	___flmul@a+3
  4975     0D09  3000               	movlw	0
  4976     0D0A  00A6               	movwf	___flmul@a+2
  4977     0D0B  3000               	movlw	0
  4978     0D0C  00A5               	movwf	___flmul@a+1
  4979     0D0D  3000               	movlw	0
  4980     0D0E  00A4               	movwf	___flmul@a
  4981     0D0F                     l2574:
  4982     0D0F  0832               	movf	___flmul@aexp,w
  4983     0D10  1903               	btfsc	3,2
  4984     0D11  2D13               	goto	u3481
  4985     0D12  2D14               	goto	u3480
  4986     0D13                     u3481:
  4987     0D13  2D19               	goto	l2578
  4988     0D14                     u3480:
  4989     0D14                     l2576:
  4990     0D14  0833               	movf	___flmul@bexp,w
  4991     0D15  1D03               	btfss	3,2
  4992     0D16  2D18               	goto	u3491
  4993     0D17  2D19               	goto	u3490
  4994     0D18                     u3491:
  4995     0D18  2D22               	goto	l2582
  4996     0D19                     u3490:
  4997     0D19                     l2578:
  4998     0D19  3000               	movlw	0
  4999     0D1A  00A3               	movwf	?___flmul+3
  5000     0D1B  3000               	movlw	0
  5001     0D1C  00A2               	movwf	?___flmul+2
  5002     0D1D  3000               	movlw	0
  5003     0D1E  00A1               	movwf	?___flmul+1
  5004     0D1F  3000               	movlw	0
  5005     0D20  00A0               	movwf	?___flmul
  5006     0D21  2FFF               	goto	l538
  5007     0D22                     l2582:
  5008     0D22  0820               	movf	___flmul@b,w
  5009     0D23  00F0               	movwf	__Umul8_16@multiplicand
  5010     0D24  0826               	movf	___flmul@a+2,w
  5011     0D25  160A  118A  209F  120A  158A  	fcall	__Umul8_16
  5012     0D2A  0871               	movf	?__Umul8_16+1,w
  5013     0D2B  1283               	bcf	3,5	;RP0=0, select bank0
  5014     0D2C  1303               	bcf	3,6	;RP1=0, select bank0
  5015     0D2D  00B9               	movwf	___flmul@temp+1
  5016     0D2E  0870               	movf	?__Umul8_16,w
  5017     0D2F  00B8               	movwf	___flmul@temp
  5018     0D30                     l2584:
  5019     0D30  0838               	movf	___flmul@temp,w
  5020     0D31  00A8               	movwf	??___flmul
  5021     0D32  01A9               	clrf	??___flmul+1
  5022     0D33  01AA               	clrf	??___flmul+2
  5023     0D34  01AB               	clrf	??___flmul+3
  5024     0D35  082B               	movf	??___flmul+3,w
  5025     0D36  00B1               	movwf	___flmul@grs+3
  5026     0D37  082A               	movf	??___flmul+2,w
  5027     0D38  00B0               	movwf	___flmul@grs+2
  5028     0D39  0829               	movf	??___flmul+1,w
  5029     0D3A  00AF               	movwf	___flmul@grs+1
  5030     0D3B  0828               	movf	??___flmul,w
  5031     0D3C  00AE               	movwf	___flmul@grs
  5032     0D3D                     l2586:
  5033     0D3D  0839               	movf	___flmul@temp+1,w
  5034     0D3E  00A8               	movwf	??___flmul
  5035     0D3F  01A9               	clrf	??___flmul+1
  5036     0D40  01AA               	clrf	??___flmul+2
  5037     0D41  01AB               	clrf	??___flmul+3
  5038     0D42  082B               	movf	??___flmul+3,w
  5039     0D43  00B7               	movwf	___flmul@prod+3
  5040     0D44  082A               	movf	??___flmul+2,w
  5041     0D45  00B6               	movwf	___flmul@prod+2
  5042     0D46  0829               	movf	??___flmul+1,w
  5043     0D47  00B5               	movwf	___flmul@prod+1
  5044     0D48  0828               	movf	??___flmul,w
  5045     0D49  00B4               	movwf	___flmul@prod
  5046     0D4A  0821               	movf	___flmul@b+1,w
  5047     0D4B  00F0               	movwf	__Umul8_16@multiplicand
  5048     0D4C  0825               	movf	___flmul@a+1,w
  5049     0D4D  160A  118A  209F  120A  158A  	fcall	__Umul8_16
  5050     0D52  0871               	movf	?__Umul8_16+1,w
  5051     0D53  1283               	bcf	3,5	;RP0=0, select bank0
  5052     0D54  1303               	bcf	3,6	;RP1=0, select bank0
  5053     0D55  00B9               	movwf	___flmul@temp+1
  5054     0D56  0870               	movf	?__Umul8_16,w
  5055     0D57  00B8               	movwf	___flmul@temp
  5056     0D58                     l2588:
  5057     0D58  0838               	movf	___flmul@temp,w
  5058     0D59  00A8               	movwf	??___flmul
  5059     0D5A  01A9               	clrf	??___flmul+1
  5060     0D5B  01AA               	clrf	??___flmul+2
  5061     0D5C  01AB               	clrf	??___flmul+3
  5062     0D5D  0828               	movf	??___flmul,w
  5063     0D5E  07AE               	addwf	___flmul@grs,f
  5064     0D5F  0829               	movf	??___flmul+1,w
  5065     0D60  1103               	clrz
  5066     0D61  1803               	skipnc
  5067     0D62  3E01               	addlw	1
  5068     0D63  1903               	skipnz
  5069     0D64  2D66               	goto	u3501
  5070     0D65  07AF               	addwf	___flmul@grs+1,f
  5071     0D66                     u3501:
  5072     0D66  082A               	movf	??___flmul+2,w
  5073     0D67  1103               	clrz
  5074     0D68  1803               	skipnc
  5075     0D69  3E01               	addlw	1
  5076     0D6A  1903               	skipnz
  5077     0D6B  2D6D               	goto	u3502
  5078     0D6C  07B0               	addwf	___flmul@grs+2,f
  5079     0D6D                     u3502:
  5080     0D6D  082B               	movf	??___flmul+3,w
  5081     0D6E  1103               	clrz
  5082     0D6F  1803               	skipnc
  5083     0D70  3E01               	addlw	1
  5084     0D71  1903               	skipnz
  5085     0D72  2D74               	goto	u3503
  5086     0D73  07B1               	addwf	___flmul@grs+3,f
  5087     0D74                     u3503:
  5088     0D74                     l2590:
  5089     0D74  0839               	movf	___flmul@temp+1,w
  5090     0D75  00A8               	movwf	??___flmul
  5091     0D76  01A9               	clrf	??___flmul+1
  5092     0D77  01AA               	clrf	??___flmul+2
  5093     0D78  01AB               	clrf	??___flmul+3
  5094     0D79  0828               	movf	??___flmul,w
  5095     0D7A  07B4               	addwf	___flmul@prod,f
  5096     0D7B  0829               	movf	??___flmul+1,w
  5097     0D7C  1103               	clrz
  5098     0D7D  1803               	skipnc
  5099     0D7E  3E01               	addlw	1
  5100     0D7F  1903               	skipnz
  5101     0D80  2D82               	goto	u3511
  5102     0D81  07B5               	addwf	___flmul@prod+1,f
  5103     0D82                     u3511:
  5104     0D82  082A               	movf	??___flmul+2,w
  5105     0D83  1103               	clrz
  5106     0D84  1803               	skipnc
  5107     0D85  3E01               	addlw	1
  5108     0D86  1903               	skipnz
  5109     0D87  2D89               	goto	u3512
  5110     0D88  07B6               	addwf	___flmul@prod+2,f
  5111     0D89                     u3512:
  5112     0D89  082B               	movf	??___flmul+3,w
  5113     0D8A  1103               	clrz
  5114     0D8B  1803               	skipnc
  5115     0D8C  3E01               	addlw	1
  5116     0D8D  1903               	skipnz
  5117     0D8E  2D90               	goto	u3513
  5118     0D8F  07B7               	addwf	___flmul@prod+3,f
  5119     0D90                     u3513:
  5120     0D90  0822               	movf	___flmul@b+2,w
  5121     0D91  00F0               	movwf	__Umul8_16@multiplicand
  5122     0D92  0824               	movf	___flmul@a,w
  5123     0D93  160A  118A  209F  120A  158A  	fcall	__Umul8_16
  5124     0D98  0871               	movf	?__Umul8_16+1,w
  5125     0D99  1283               	bcf	3,5	;RP0=0, select bank0
  5126     0D9A  1303               	bcf	3,6	;RP1=0, select bank0
  5127     0D9B  00B9               	movwf	___flmul@temp+1
  5128     0D9C  0870               	movf	?__Umul8_16,w
  5129     0D9D  00B8               	movwf	___flmul@temp
  5130     0D9E                     l2592:
  5131     0D9E  0838               	movf	___flmul@temp,w
  5132     0D9F  00A8               	movwf	??___flmul
  5133     0DA0  01A9               	clrf	??___flmul+1
  5134     0DA1  01AA               	clrf	??___flmul+2
  5135     0DA2  01AB               	clrf	??___flmul+3
  5136     0DA3  0828               	movf	??___flmul,w
  5137     0DA4  07AE               	addwf	___flmul@grs,f
  5138     0DA5  0829               	movf	??___flmul+1,w
  5139     0DA6  1103               	clrz
  5140     0DA7  1803               	skipnc
  5141     0DA8  3E01               	addlw	1
  5142     0DA9  1903               	skipnz
  5143     0DAA  2DAC               	goto	u3521
  5144     0DAB  07AF               	addwf	___flmul@grs+1,f
  5145     0DAC                     u3521:
  5146     0DAC  082A               	movf	??___flmul+2,w
  5147     0DAD  1103               	clrz
  5148     0DAE  1803               	skipnc
  5149     0DAF  3E01               	addlw	1
  5150     0DB0  1903               	skipnz
  5151     0DB1  2DB3               	goto	u3522
  5152     0DB2  07B0               	addwf	___flmul@grs+2,f
  5153     0DB3                     u3522:
  5154     0DB3  082B               	movf	??___flmul+3,w
  5155     0DB4  1103               	clrz
  5156     0DB5  1803               	skipnc
  5157     0DB6  3E01               	addlw	1
  5158     0DB7  1903               	skipnz
  5159     0DB8  2DBA               	goto	u3523
  5160     0DB9  07B1               	addwf	___flmul@grs+3,f
  5161     0DBA                     u3523:
  5162     0DBA                     l2594:
  5163     0DBA  0839               	movf	___flmul@temp+1,w
  5164     0DBB  00A8               	movwf	??___flmul
  5165     0DBC  01A9               	clrf	??___flmul+1
  5166     0DBD  01AA               	clrf	??___flmul+2
  5167     0DBE  01AB               	clrf	??___flmul+3
  5168     0DBF  0828               	movf	??___flmul,w
  5169     0DC0  07B4               	addwf	___flmul@prod,f
  5170     0DC1  0829               	movf	??___flmul+1,w
  5171     0DC2  1103               	clrz
  5172     0DC3  1803               	skipnc
  5173     0DC4  3E01               	addlw	1
  5174     0DC5  1903               	skipnz
  5175     0DC6  2DC8               	goto	u3531
  5176     0DC7  07B5               	addwf	___flmul@prod+1,f
  5177     0DC8                     u3531:
  5178     0DC8  082A               	movf	??___flmul+2,w
  5179     0DC9  1103               	clrz
  5180     0DCA  1803               	skipnc
  5181     0DCB  3E01               	addlw	1
  5182     0DCC  1903               	skipnz
  5183     0DCD  2DCF               	goto	u3532
  5184     0DCE  07B6               	addwf	___flmul@prod+2,f
  5185     0DCF                     u3532:
  5186     0DCF  082B               	movf	??___flmul+3,w
  5187     0DD0  1103               	clrz
  5188     0DD1  1803               	skipnc
  5189     0DD2  3E01               	addlw	1
  5190     0DD3  1903               	skipnz
  5191     0DD4  2DD6               	goto	u3533
  5192     0DD5  07B7               	addwf	___flmul@prod+3,f
  5193     0DD6                     u3533:
  5194     0DD6                     l2596:
  5195     0DD6  3008               	movlw	8
  5196     0DD7  00A8               	movwf	??___flmul
  5197     0DD8                     u3545:
  5198     0DD8  1003               	clrc
  5199     0DD9  0DAE               	rlf	___flmul@grs,f
  5200     0DDA  0DAF               	rlf	___flmul@grs+1,f
  5201     0DDB  0DB0               	rlf	___flmul@grs+2,f
  5202     0DDC  0DB1               	rlf	___flmul@grs+3,f
  5203     0DDD  0BA8               	decfsz	??___flmul,f
  5204     0DDE  2DD8               	goto	u3545
  5205     0DDF                     l2598:
  5206     0DDF  0821               	movf	___flmul@b+1,w
  5207     0DE0  00F0               	movwf	__Umul8_16@multiplicand
  5208     0DE1  0824               	movf	___flmul@a,w
  5209     0DE2  160A  118A  209F  120A  158A  	fcall	__Umul8_16
  5210     0DE7  0871               	movf	?__Umul8_16+1,w
  5211     0DE8  1283               	bcf	3,5	;RP0=0, select bank0
  5212     0DE9  1303               	bcf	3,6	;RP1=0, select bank0
  5213     0DEA  00B9               	movwf	___flmul@temp+1
  5214     0DEB  0870               	movf	?__Umul8_16,w
  5215     0DEC  00B8               	movwf	___flmul@temp
  5216     0DED                     l2600:
  5217     0DED  0838               	movf	___flmul@temp,w
  5218     0DEE  00A8               	movwf	??___flmul
  5219     0DEF  0839               	movf	___flmul@temp+1,w
  5220     0DF0  00A9               	movwf	??___flmul+1
  5221     0DF1  01AA               	clrf	??___flmul+2
  5222     0DF2  01AB               	clrf	??___flmul+3
  5223     0DF3  0828               	movf	??___flmul,w
  5224     0DF4  07AE               	addwf	___flmul@grs,f
  5225     0DF5  0829               	movf	??___flmul+1,w
  5226     0DF6  1103               	clrz
  5227     0DF7  1803               	skipnc
  5228     0DF8  3E01               	addlw	1
  5229     0DF9  1903               	skipnz
  5230     0DFA  2DFC               	goto	u3551
  5231     0DFB  07AF               	addwf	___flmul@grs+1,f
  5232     0DFC                     u3551:
  5233     0DFC  082A               	movf	??___flmul+2,w
  5234     0DFD  1103               	clrz
  5235     0DFE  1803               	skipnc
  5236     0DFF  3E01               	addlw	1
  5237     0E00  1903               	skipnz
  5238     0E01  2E03               	goto	u3552
  5239     0E02  07B0               	addwf	___flmul@grs+2,f
  5240     0E03                     u3552:
  5241     0E03  082B               	movf	??___flmul+3,w
  5242     0E04  1103               	clrz
  5243     0E05  1803               	skipnc
  5244     0E06  3E01               	addlw	1
  5245     0E07  1903               	skipnz
  5246     0E08  2E0A               	goto	u3553
  5247     0E09  07B1               	addwf	___flmul@grs+3,f
  5248     0E0A                     u3553:
  5249     0E0A                     l2602:
  5250     0E0A  0820               	movf	___flmul@b,w
  5251     0E0B  00F0               	movwf	__Umul8_16@multiplicand
  5252     0E0C  0825               	movf	___flmul@a+1,w
  5253     0E0D  160A  118A  209F  120A  158A  	fcall	__Umul8_16
  5254     0E12  0871               	movf	?__Umul8_16+1,w
  5255     0E13  1283               	bcf	3,5	;RP0=0, select bank0
  5256     0E14  1303               	bcf	3,6	;RP1=0, select bank0
  5257     0E15  00B9               	movwf	___flmul@temp+1
  5258     0E16  0870               	movf	?__Umul8_16,w
  5259     0E17  00B8               	movwf	___flmul@temp
  5260     0E18                     l2604:
  5261     0E18  0838               	movf	___flmul@temp,w
  5262     0E19  00A8               	movwf	??___flmul
  5263     0E1A  0839               	movf	___flmul@temp+1,w
  5264     0E1B  00A9               	movwf	??___flmul+1
  5265     0E1C  01AA               	clrf	??___flmul+2
  5266     0E1D  01AB               	clrf	??___flmul+3
  5267     0E1E  0828               	movf	??___flmul,w
  5268     0E1F  07AE               	addwf	___flmul@grs,f
  5269     0E20  0829               	movf	??___flmul+1,w
  5270     0E21  1103               	clrz
  5271     0E22  1803               	skipnc
  5272     0E23  3E01               	addlw	1
  5273     0E24  1903               	skipnz
  5274     0E25  2E27               	goto	u3561
  5275     0E26  07AF               	addwf	___flmul@grs+1,f
  5276     0E27                     u3561:
  5277     0E27  082A               	movf	??___flmul+2,w
  5278     0E28  1103               	clrz
  5279     0E29  1803               	skipnc
  5280     0E2A  3E01               	addlw	1
  5281     0E2B  1903               	skipnz
  5282     0E2C  2E2E               	goto	u3562
  5283     0E2D  07B0               	addwf	___flmul@grs+2,f
  5284     0E2E                     u3562:
  5285     0E2E  082B               	movf	??___flmul+3,w
  5286     0E2F  1103               	clrz
  5287     0E30  1803               	skipnc
  5288     0E31  3E01               	addlw	1
  5289     0E32  1903               	skipnz
  5290     0E33  2E35               	goto	u3563
  5291     0E34  07B1               	addwf	___flmul@grs+3,f
  5292     0E35                     u3563:
  5293     0E35                     l2606:
  5294     0E35  3008               	movlw	8
  5295     0E36  00A8               	movwf	??___flmul
  5296     0E37                     u3575:
  5297     0E37  1003               	clrc
  5298     0E38  0DAE               	rlf	___flmul@grs,f
  5299     0E39  0DAF               	rlf	___flmul@grs+1,f
  5300     0E3A  0DB0               	rlf	___flmul@grs+2,f
  5301     0E3B  0DB1               	rlf	___flmul@grs+3,f
  5302     0E3C  0BA8               	decfsz	??___flmul,f
  5303     0E3D  2E37               	goto	u3575
  5304     0E3E  0820               	movf	___flmul@b,w
  5305     0E3F  00F0               	movwf	__Umul8_16@multiplicand
  5306     0E40  0824               	movf	___flmul@a,w
  5307     0E41  160A  118A  209F  120A  158A  	fcall	__Umul8_16
  5308     0E46  0871               	movf	?__Umul8_16+1,w
  5309     0E47  1283               	bcf	3,5	;RP0=0, select bank0
  5310     0E48  1303               	bcf	3,6	;RP1=0, select bank0
  5311     0E49  00B9               	movwf	___flmul@temp+1
  5312     0E4A  0870               	movf	?__Umul8_16,w
  5313     0E4B  00B8               	movwf	___flmul@temp
  5314     0E4C                     l2608:
  5315     0E4C  0838               	movf	___flmul@temp,w
  5316     0E4D  00A8               	movwf	??___flmul
  5317     0E4E  0839               	movf	___flmul@temp+1,w
  5318     0E4F  00A9               	movwf	??___flmul+1
  5319     0E50  01AA               	clrf	??___flmul+2
  5320     0E51  01AB               	clrf	??___flmul+3
  5321     0E52  0828               	movf	??___flmul,w
  5322     0E53  07AE               	addwf	___flmul@grs,f
  5323     0E54  0829               	movf	??___flmul+1,w
  5324     0E55  1103               	clrz
  5325     0E56  1803               	skipnc
  5326     0E57  3E01               	addlw	1
  5327     0E58  1903               	skipnz
  5328     0E59  2E5B               	goto	u3581
  5329     0E5A  07AF               	addwf	___flmul@grs+1,f
  5330     0E5B                     u3581:
  5331     0E5B  082A               	movf	??___flmul+2,w
  5332     0E5C  1103               	clrz
  5333     0E5D  1803               	skipnc
  5334     0E5E  3E01               	addlw	1
  5335     0E5F  1903               	skipnz
  5336     0E60  2E62               	goto	u3582
  5337     0E61  07B0               	addwf	___flmul@grs+2,f
  5338     0E62                     u3582:
  5339     0E62  082B               	movf	??___flmul+3,w
  5340     0E63  1103               	clrz
  5341     0E64  1803               	skipnc
  5342     0E65  3E01               	addlw	1
  5343     0E66  1903               	skipnz
  5344     0E67  2E69               	goto	u3583
  5345     0E68  07B1               	addwf	___flmul@grs+3,f
  5346     0E69                     u3583:
  5347     0E69                     l2610:
  5348     0E69  0821               	movf	___flmul@b+1,w
  5349     0E6A  00F0               	movwf	__Umul8_16@multiplicand
  5350     0E6B  0826               	movf	___flmul@a+2,w
  5351     0E6C  160A  118A  209F  120A  158A  	fcall	__Umul8_16
  5352     0E71  0871               	movf	?__Umul8_16+1,w
  5353     0E72  1283               	bcf	3,5	;RP0=0, select bank0
  5354     0E73  1303               	bcf	3,6	;RP1=0, select bank0
  5355     0E74  00B9               	movwf	___flmul@temp+1
  5356     0E75  0870               	movf	?__Umul8_16,w
  5357     0E76  00B8               	movwf	___flmul@temp
  5358     0E77  0838               	movf	___flmul@temp,w
  5359     0E78  00A8               	movwf	??___flmul
  5360     0E79  0839               	movf	___flmul@temp+1,w
  5361     0E7A  00A9               	movwf	??___flmul+1
  5362     0E7B  01AA               	clrf	??___flmul+2
  5363     0E7C  01AB               	clrf	??___flmul+3
  5364     0E7D  0828               	movf	??___flmul,w
  5365     0E7E  07B4               	addwf	___flmul@prod,f
  5366     0E7F  0829               	movf	??___flmul+1,w
  5367     0E80  1103               	clrz
  5368     0E81  1803               	skipnc
  5369     0E82  3E01               	addlw	1
  5370     0E83  1903               	skipnz
  5371     0E84  2E86               	goto	u3591
  5372     0E85  07B5               	addwf	___flmul@prod+1,f
  5373     0E86                     u3591:
  5374     0E86  082A               	movf	??___flmul+2,w
  5375     0E87  1103               	clrz
  5376     0E88  1803               	skipnc
  5377     0E89  3E01               	addlw	1
  5378     0E8A  1903               	skipnz
  5379     0E8B  2E8D               	goto	u3592
  5380     0E8C  07B6               	addwf	___flmul@prod+2,f
  5381     0E8D                     u3592:
  5382     0E8D  082B               	movf	??___flmul+3,w
  5383     0E8E  1103               	clrz
  5384     0E8F  1803               	skipnc
  5385     0E90  3E01               	addlw	1
  5386     0E91  1903               	skipnz
  5387     0E92  2E94               	goto	u3593
  5388     0E93  07B7               	addwf	___flmul@prod+3,f
  5389     0E94                     u3593:
  5390     0E94                     l2612:
  5391     0E94  0822               	movf	___flmul@b+2,w
  5392     0E95  00F0               	movwf	__Umul8_16@multiplicand
  5393     0E96  0825               	movf	___flmul@a+1,w
  5394     0E97  160A  118A  209F  120A  158A  	fcall	__Umul8_16
  5395     0E9C  0871               	movf	?__Umul8_16+1,w
  5396     0E9D  1283               	bcf	3,5	;RP0=0, select bank0
  5397     0E9E  1303               	bcf	3,6	;RP1=0, select bank0
  5398     0E9F  00B9               	movwf	___flmul@temp+1
  5399     0EA0  0870               	movf	?__Umul8_16,w
  5400     0EA1  00B8               	movwf	___flmul@temp
  5401     0EA2                     l2614:
  5402     0EA2  0838               	movf	___flmul@temp,w
  5403     0EA3  00A8               	movwf	??___flmul
  5404     0EA4  0839               	movf	___flmul@temp+1,w
  5405     0EA5  00A9               	movwf	??___flmul+1
  5406     0EA6  01AA               	clrf	??___flmul+2
  5407     0EA7  01AB               	clrf	??___flmul+3
  5408     0EA8  0828               	movf	??___flmul,w
  5409     0EA9  07B4               	addwf	___flmul@prod,f
  5410     0EAA  0829               	movf	??___flmul+1,w
  5411     0EAB  1103               	clrz
  5412     0EAC  1803               	skipnc
  5413     0EAD  3E01               	addlw	1
  5414     0EAE  1903               	skipnz
  5415     0EAF  2EB1               	goto	u3601
  5416     0EB0  07B5               	addwf	___flmul@prod+1,f
  5417     0EB1                     u3601:
  5418     0EB1  082A               	movf	??___flmul+2,w
  5419     0EB2  1103               	clrz
  5420     0EB3  1803               	skipnc
  5421     0EB4  3E01               	addlw	1
  5422     0EB5  1903               	skipnz
  5423     0EB6  2EB8               	goto	u3602
  5424     0EB7  07B6               	addwf	___flmul@prod+2,f
  5425     0EB8                     u3602:
  5426     0EB8  082B               	movf	??___flmul+3,w
  5427     0EB9  1103               	clrz
  5428     0EBA  1803               	skipnc
  5429     0EBB  3E01               	addlw	1
  5430     0EBC  1903               	skipnz
  5431     0EBD  2EBF               	goto	u3603
  5432     0EBE  07B7               	addwf	___flmul@prod+3,f
  5433     0EBF                     u3603:
  5434     0EBF  0822               	movf	___flmul@b+2,w
  5435     0EC0  00F0               	movwf	__Umul8_16@multiplicand
  5436     0EC1  0826               	movf	___flmul@a+2,w
  5437     0EC2  160A  118A  209F  120A  158A  	fcall	__Umul8_16
  5438     0EC7  0871               	movf	?__Umul8_16+1,w
  5439     0EC8  1283               	bcf	3,5	;RP0=0, select bank0
  5440     0EC9  1303               	bcf	3,6	;RP1=0, select bank0
  5441     0ECA  00B9               	movwf	___flmul@temp+1
  5442     0ECB  0870               	movf	?__Umul8_16,w
  5443     0ECC  00B8               	movwf	___flmul@temp
  5444     0ECD                     l2616:
  5445     0ECD  0838               	movf	___flmul@temp,w
  5446     0ECE  00A8               	movwf	??___flmul
  5447     0ECF  0839               	movf	___flmul@temp+1,w
  5448     0ED0  00A9               	movwf	??___flmul+1
  5449     0ED1  01AA               	clrf	??___flmul+2
  5450     0ED2  01AB               	clrf	??___flmul+3
  5451     0ED3  3008               	movlw	8
  5452     0ED4                     u3615:
  5453     0ED4  1003               	clrc
  5454     0ED5  0DA8               	rlf	??___flmul,f
  5455     0ED6  0DA9               	rlf	??___flmul+1,f
  5456     0ED7  0DAA               	rlf	??___flmul+2,f
  5457     0ED8  0DAB               	rlf	??___flmul+3,f
  5458     0ED9                     u3610:
  5459     0ED9  3EFF               	addlw	-1
  5460     0EDA  1D03               	skipz
  5461     0EDB  2ED4               	goto	u3615
  5462     0EDC  0828               	movf	??___flmul,w
  5463     0EDD  07B4               	addwf	___flmul@prod,f
  5464     0EDE  0829               	movf	??___flmul+1,w
  5465     0EDF  1103               	clrz
  5466     0EE0  1803               	skipnc
  5467     0EE1  3E01               	addlw	1
  5468     0EE2  1903               	skipnz
  5469     0EE3  2EE5               	goto	u3621
  5470     0EE4  07B5               	addwf	___flmul@prod+1,f
  5471     0EE5                     u3621:
  5472     0EE5  082A               	movf	??___flmul+2,w
  5473     0EE6  1103               	clrz
  5474     0EE7  1803               	skipnc
  5475     0EE8  3E01               	addlw	1
  5476     0EE9  1903               	skipnz
  5477     0EEA  2EEC               	goto	u3622
  5478     0EEB  07B6               	addwf	___flmul@prod+2,f
  5479     0EEC                     u3622:
  5480     0EEC  082B               	movf	??___flmul+3,w
  5481     0EED  1103               	clrz
  5482     0EEE  1803               	skipnc
  5483     0EEF  3E01               	addlw	1
  5484     0EF0  1903               	skipnz
  5485     0EF1  2EF3               	goto	u3623
  5486     0EF2  07B7               	addwf	___flmul@prod+3,f
  5487     0EF3                     u3623:
  5488     0EF3                     l2618:
  5489     0EF3  082E               	movf	___flmul@grs,w
  5490     0EF4  00A8               	movwf	??___flmul
  5491     0EF5  082F               	movf	___flmul@grs+1,w
  5492     0EF6  00A9               	movwf	??___flmul+1
  5493     0EF7  0830               	movf	___flmul@grs+2,w
  5494     0EF8  00AA               	movwf	??___flmul+2
  5495     0EF9  0831               	movf	___flmul@grs+3,w
  5496     0EFA  00AB               	movwf	??___flmul+3
  5497     0EFB  3018               	movlw	24
  5498     0EFC                     u3635:
  5499     0EFC  1003               	clrc
  5500     0EFD  0CAB               	rrf	??___flmul+3,f
  5501     0EFE  0CAA               	rrf	??___flmul+2,f
  5502     0EFF  0CA9               	rrf	??___flmul+1,f
  5503     0F00  0CA8               	rrf	??___flmul,f
  5504     0F01                     u3630:
  5505     0F01  3EFF               	addlw	-1
  5506     0F02  1D03               	skipz
  5507     0F03  2EFC               	goto	u3635
  5508     0F04  0828               	movf	??___flmul,w
  5509     0F05  07B4               	addwf	___flmul@prod,f
  5510     0F06  0829               	movf	??___flmul+1,w
  5511     0F07  1103               	clrz
  5512     0F08  1803               	skipnc
  5513     0F09  3E01               	addlw	1
  5514     0F0A  1903               	skipnz
  5515     0F0B  2F0D               	goto	u3641
  5516     0F0C  07B5               	addwf	___flmul@prod+1,f
  5517     0F0D                     u3641:
  5518     0F0D  082A               	movf	??___flmul+2,w
  5519     0F0E  1103               	clrz
  5520     0F0F  1803               	skipnc
  5521     0F10  3E01               	addlw	1
  5522     0F11  1903               	skipnz
  5523     0F12  2F14               	goto	u3642
  5524     0F13  07B6               	addwf	___flmul@prod+2,f
  5525     0F14                     u3642:
  5526     0F14  082B               	movf	??___flmul+3,w
  5527     0F15  1103               	clrz
  5528     0F16  1803               	skipnc
  5529     0F17  3E01               	addlw	1
  5530     0F18  1903               	skipnz
  5531     0F19  2F1B               	goto	u3643
  5532     0F1A  07B7               	addwf	___flmul@prod+3,f
  5533     0F1B                     u3643:
  5534     0F1B                     l2620:
  5535     0F1B  3008               	movlw	8
  5536     0F1C  00A8               	movwf	??___flmul
  5537     0F1D                     u3655:
  5538     0F1D  1003               	clrc
  5539     0F1E  0DAE               	rlf	___flmul@grs,f
  5540     0F1F  0DAF               	rlf	___flmul@grs+1,f
  5541     0F20  0DB0               	rlf	___flmul@grs+2,f
  5542     0F21  0DB1               	rlf	___flmul@grs+3,f
  5543     0F22  0BA8               	decfsz	??___flmul,f
  5544     0F23  2F1D               	goto	u3655
  5545     0F24                     l2622:
  5546     0F24  0833               	movf	___flmul@bexp,w
  5547     0F25  0732               	addwf	___flmul@aexp,w
  5548     0F26  00A8               	movwf	??___flmul
  5549     0F27  01A9               	clrf	??___flmul+1
  5550     0F28  0DA9               	rlf	??___flmul+1,f
  5551     0F29  0828               	movf	??___flmul,w
  5552     0F2A  3E82               	addlw	130
  5553     0F2B  00B8               	movwf	___flmul@temp
  5554     0F2C  0829               	movf	??___flmul+1,w
  5555     0F2D  1803               	skipnc
  5556     0F2E  3E01               	addlw	1
  5557     0F2F  3EFF               	addlw	255
  5558     0F30  00B9               	movwf	___flmul@temp+1
  5559     0F31  2F4F               	goto	l2634
  5560     0F32                     l2624:
  5561     0F32  3001               	movlw	1
  5562     0F33  00A8               	movwf	??___flmul
  5563     0F34                     u3665:
  5564     0F34  1003               	clrc
  5565     0F35  0DB4               	rlf	___flmul@prod,f
  5566     0F36  0DB5               	rlf	___flmul@prod+1,f
  5567     0F37  0DB6               	rlf	___flmul@prod+2,f
  5568     0F38  0DB7               	rlf	___flmul@prod+3,f
  5569     0F39  0BA8               	decfsz	??___flmul,f
  5570     0F3A  2F34               	goto	u3665
  5571     0F3B                     l2626:
  5572     0F3B  1FB1               	btfss	___flmul@grs+3,7
  5573     0F3C  2F3E               	goto	u3671
  5574     0F3D  2F3F               	goto	u3670
  5575     0F3E                     u3671:
  5576     0F3E  2F40               	goto	l2630
  5577     0F3F                     u3670:
  5578     0F3F                     l2628:
  5579     0F3F  1434               	bsf	___flmul@prod,0
  5580     0F40                     l2630:
  5581     0F40  3001               	movlw	1
  5582     0F41  00A8               	movwf	??___flmul
  5583     0F42                     u3685:
  5584     0F42  1003               	clrc
  5585     0F43  0DAE               	rlf	___flmul@grs,f
  5586     0F44  0DAF               	rlf	___flmul@grs+1,f
  5587     0F45  0DB0               	rlf	___flmul@grs+2,f
  5588     0F46  0DB1               	rlf	___flmul@grs+3,f
  5589     0F47  0BA8               	decfsz	??___flmul,f
  5590     0F48  2F42               	goto	u3685
  5591     0F49                     l2632:
  5592     0F49  30FF               	movlw	255
  5593     0F4A  07B8               	addwf	___flmul@temp,f
  5594     0F4B  1803               	skipnc
  5595     0F4C  0AB9               	incf	___flmul@temp+1,f
  5596     0F4D  30FF               	movlw	255
  5597     0F4E  07B9               	addwf	___flmul@temp+1,f
  5598     0F4F                     l2634:
  5599     0F4F  1FB6               	btfss	___flmul@prod+2,7
  5600     0F50  2F52               	goto	u3691
  5601     0F51  2F53               	goto	u3690
  5602     0F52                     u3691:
  5603     0F52  2F32               	goto	l2624
  5604     0F53                     u3690:
  5605     0F53                     l2636:
  5606     0F53  01B2               	clrf	___flmul@aexp
  5607     0F54                     l2638:
  5608     0F54  1FB1               	btfss	___flmul@grs+3,7
  5609     0F55  2F57               	goto	u3701
  5610     0F56  2F58               	goto	u3700
  5611     0F57                     u3701:
  5612     0F57  2F74               	goto	l2646
  5613     0F58                     u3700:
  5614     0F58                     l2640:
  5615     0F58  30FF               	movlw	255
  5616     0F59  052E               	andwf	___flmul@grs,w
  5617     0F5A  00A8               	movwf	??___flmul
  5618     0F5B  30FF               	movlw	255
  5619     0F5C  052F               	andwf	___flmul@grs+1,w
  5620     0F5D  00A9               	movwf	??___flmul+1
  5621     0F5E  30FF               	movlw	255
  5622     0F5F  0530               	andwf	___flmul@grs+2,w
  5623     0F60  00AA               	movwf	??___flmul+2
  5624     0F61  307F               	movlw	127
  5625     0F62  0531               	andwf	___flmul@grs+3,w
  5626     0F63  00AB               	movwf	??___flmul+3
  5627     0F64  082B               	movf	??___flmul+3,w
  5628     0F65  042A               	iorwf	??___flmul+2,w
  5629     0F66  0429               	iorwf	??___flmul+1,w
  5630     0F67  0428               	iorwf	??___flmul,w
  5631     0F68  1903               	skipnz
  5632     0F69  2F6B               	goto	u3711
  5633     0F6A  2F6C               	goto	u3710
  5634     0F6B                     u3711:
  5635     0F6B  2F6F               	goto	l544
  5636     0F6C                     u3710:
  5637     0F6C                     l2642:
  5638     0F6C  01B2               	clrf	___flmul@aexp
  5639     0F6D  0AB2               	incf	___flmul@aexp,f
  5640     0F6E  2F74               	goto	l2646
  5641     0F6F                     l544:
  5642     0F6F  1C34               	btfss	___flmul@prod,0
  5643     0F70  2F72               	goto	u3721
  5644     0F71  2F73               	goto	u3720
  5645     0F72                     u3721:
  5646     0F72  2F74               	goto	l2646
  5647     0F73                     u3720:
  5648     0F73  2F6C               	goto	l2642
  5649     0F74                     l2646:
  5650     0F74  0832               	movf	___flmul@aexp,w
  5651     0F75  1903               	btfsc	3,2
  5652     0F76  2F78               	goto	u3731
  5653     0F77  2F79               	goto	u3730
  5654     0F78                     u3731:
  5655     0F78  2FAA               	goto	l2656
  5656     0F79                     u3730:
  5657     0F79                     l2648:
  5658     0F79  3001               	movlw	1
  5659     0F7A  07B4               	addwf	___flmul@prod,f
  5660     0F7B  3000               	movlw	0
  5661     0F7C  1803               	skipnc
  5662     0F7D  3001               	movlw	1
  5663     0F7E  07B5               	addwf	___flmul@prod+1,f
  5664     0F7F  3000               	movlw	0
  5665     0F80  1803               	skipnc
  5666     0F81  3001               	movlw	1
  5667     0F82  07B6               	addwf	___flmul@prod+2,f
  5668     0F83  3000               	movlw	0
  5669     0F84  1803               	skipnc
  5670     0F85  3001               	movlw	1
  5671     0F86  07B7               	addwf	___flmul@prod+3,f
  5672     0F87                     l2650:
  5673     0F87  1C37               	btfss	___flmul@prod+3,0
  5674     0F88  2F8A               	goto	u3741
  5675     0F89  2F8B               	goto	u3740
  5676     0F8A                     u3741:
  5677     0F8A  2FAA               	goto	l2656
  5678     0F8B                     u3740:
  5679     0F8B                     l2652:
  5680     0F8B  0834               	movf	___flmul@prod,w
  5681     0F8C  00A8               	movwf	??___flmul
  5682     0F8D  0835               	movf	___flmul@prod+1,w
  5683     0F8E  00A9               	movwf	??___flmul+1
  5684     0F8F  0836               	movf	___flmul@prod+2,w
  5685     0F90  00AA               	movwf	??___flmul+2
  5686     0F91  0837               	movf	___flmul@prod+3,w
  5687     0F92  00AB               	movwf	??___flmul+3
  5688     0F93  3001               	movlw	1
  5689     0F94  00AC               	movwf	??___flmul+4
  5690     0F95                     u3755:
  5691     0F95  0D2B               	rlf	??___flmul+3,w
  5692     0F96  0CAB               	rrf	??___flmul+3,f
  5693     0F97  0CAA               	rrf	??___flmul+2,f
  5694     0F98  0CA9               	rrf	??___flmul+1,f
  5695     0F99  0CA8               	rrf	??___flmul,f
  5696     0F9A                     u3750:
  5697     0F9A  0BAC               	decfsz	??___flmul+4,f
  5698     0F9B  2F95               	goto	u3755
  5699     0F9C  082B               	movf	??___flmul+3,w
  5700     0F9D  00B7               	movwf	___flmul@prod+3
  5701     0F9E  082A               	movf	??___flmul+2,w
  5702     0F9F  00B6               	movwf	___flmul@prod+2
  5703     0FA0  0829               	movf	??___flmul+1,w
  5704     0FA1  00B5               	movwf	___flmul@prod+1
  5705     0FA2  0828               	movf	??___flmul,w
  5706     0FA3  00B4               	movwf	___flmul@prod
  5707     0FA4                     l2654:
  5708     0FA4  3001               	movlw	1
  5709     0FA5  07B8               	addwf	___flmul@temp,f
  5710     0FA6  1803               	skipnc
  5711     0FA7  0AB9               	incf	___flmul@temp+1,f
  5712     0FA8  3000               	movlw	0
  5713     0FA9  07B9               	addwf	___flmul@temp+1,f
  5714     0FAA                     l2656:
  5715     0FAA  0839               	movf	___flmul@temp+1,w
  5716     0FAB  3A80               	xorlw	128
  5717     0FAC  00FF               	movwf	btemp+1
  5718     0FAD  3080               	movlw	128
  5719     0FAE  027F               	subwf	btemp+1,w
  5720     0FAF  1D03               	skipz
  5721     0FB0  2FB3               	goto	u3765
  5722     0FB1  30FF               	movlw	255
  5723     0FB2  0238               	subwf	___flmul@temp,w
  5724     0FB3                     u3765:
  5725     0FB3  1C03               	skipc
  5726     0FB4  2FB6               	goto	u3761
  5727     0FB5  2FB7               	goto	u3760
  5728     0FB6                     u3761:
  5729     0FB6  2FC2               	goto	l2660
  5730     0FB7                     u3760:
  5731     0FB7                     l2658:
  5732     0FB7  307F               	movlw	127
  5733     0FB8  1283               	bcf	3,5	;RP0=0, select bank0
  5734     0FB9  1303               	bcf	3,6	;RP1=0, select bank0
  5735     0FBA  00B7               	movwf	___flmul@prod+3
  5736     0FBB  3080               	movlw	128
  5737     0FBC  00B6               	movwf	___flmul@prod+2
  5738     0FBD  3000               	movlw	0
  5739     0FBE  00B5               	movwf	___flmul@prod+1
  5740     0FBF  3000               	movlw	0
  5741     0FC0  00B4               	movwf	___flmul@prod
  5742     0FC1  2FF3               	goto	l2674
  5743     0FC2                     l2660:
  5744     0FC2  1283               	bcf	3,5	;RP0=0, select bank0
  5745     0FC3  1303               	bcf	3,6	;RP1=0, select bank0
  5746     0FC4  0839               	movf	___flmul@temp+1,w
  5747     0FC5  3A80               	xorlw	128
  5748     0FC6  00FF               	movwf	btemp+1
  5749     0FC7  3080               	movlw	128
  5750     0FC8  027F               	subwf	btemp+1,w
  5751     0FC9  1D03               	skipz
  5752     0FCA  2FCD               	goto	u3775
  5753     0FCB  3001               	movlw	1
  5754     0FCC  0238               	subwf	___flmul@temp,w
  5755     0FCD                     u3775:
  5756     0FCD  1803               	skipnc
  5757     0FCE  2FD0               	goto	u3771
  5758     0FCF  2FD1               	goto	u3770
  5759     0FD0                     u3771:
  5760     0FD0  2FDD               	goto	l2666
  5761     0FD1                     u3770:
  5762     0FD1                     l2662:
  5763     0FD1  3000               	movlw	0
  5764     0FD2  1283               	bcf	3,5	;RP0=0, select bank0
  5765     0FD3  1303               	bcf	3,6	;RP1=0, select bank0
  5766     0FD4  00B7               	movwf	___flmul@prod+3
  5767     0FD5  3000               	movlw	0
  5768     0FD6  00B6               	movwf	___flmul@prod+2
  5769     0FD7  3000               	movlw	0
  5770     0FD8  00B5               	movwf	___flmul@prod+1
  5771     0FD9  3000               	movlw	0
  5772     0FDA  00B4               	movwf	___flmul@prod
  5773     0FDB                     l2664:
  5774     0FDB  01AD               	clrf	___flmul@sign
  5775     0FDC  2FF3               	goto	l2674
  5776     0FDD                     l2666:
  5777     0FDD  1283               	bcf	3,5	;RP0=0, select bank0
  5778     0FDE  1303               	bcf	3,6	;RP1=0, select bank0
  5779     0FDF  0838               	movf	___flmul@temp,w
  5780     0FE0  00B3               	movwf	___flmul@bexp
  5781     0FE1  30FF               	movlw	255
  5782     0FE2  05B4               	andwf	___flmul@prod,f
  5783     0FE3  30FF               	movlw	255
  5784     0FE4  05B5               	andwf	___flmul@prod+1,f
  5785     0FE5  307F               	movlw	127
  5786     0FE6  05B6               	andwf	___flmul@prod+2,f
  5787     0FE7  3000               	movlw	0
  5788     0FE8  05B7               	andwf	___flmul@prod+3,f
  5789     0FE9                     l2668:
  5790     0FE9  1C33               	btfss	___flmul@bexp,0
  5791     0FEA  2FEC               	goto	u3781
  5792     0FEB  2FED               	goto	u3780
  5793     0FEC                     u3781:
  5794     0FEC  2FEE               	goto	l2672
  5795     0FED                     u3780:
  5796     0FED                     l2670:
  5797     0FED  17B6               	bsf	___flmul@prod+2,7
  5798     0FEE                     l2672:
  5799     0FEE  0833               	movf	___flmul@bexp,w
  5800     0FEF  00A8               	movwf	??___flmul
  5801     0FF0  1003               	clrc
  5802     0FF1  0C28               	rrf	??___flmul,w
  5803     0FF2  00B7               	movwf	___flmul@prod+3
  5804     0FF3                     l2674:
  5805     0FF3  082D               	movf	___flmul@sign,w
  5806     0FF4  00FF               	movwf	btemp+1
  5807     0FF5  087F               	movf	btemp+1,w
  5808     0FF6  04B7               	iorwf	___flmul@prod+3,f
  5809     0FF7                     l2676:
  5810     0FF7  0837               	movf	___flmul@prod+3,w
  5811     0FF8  00A3               	movwf	?___flmul+3
  5812     0FF9  0836               	movf	___flmul@prod+2,w
  5813     0FFA  00A2               	movwf	?___flmul+2
  5814     0FFB  0835               	movf	___flmul@prod+1,w
  5815     0FFC  00A1               	movwf	?___flmul+1
  5816     0FFD  0834               	movf	___flmul@prod,w
  5817     0FFE  00A0               	movwf	?___flmul
  5818     0FFF                     l538:
  5819     0FFF  0008               	return
  5820     1000                     __end_of___flmul:
  5821                           
  5822                           	psect	text21
  5823     109F                     __ptext21:	
  5824 ;; *************** function __Umul8_16 *****************
  5825 ;; Defined at:
  5826 ;;		line 4 in file "C:\Program Files\Microchip\xc8\v2.45\pic\sources\c99\common\Umul8_16.c"
  5827 ;; Parameters:    Size  Location     Type
  5828 ;;  multiplier      1    wreg     unsigned char 
  5829 ;;  multiplicand    1    0[COMMON] unsigned char 
  5830 ;; Auto vars:     Size  Location     Type
  5831 ;;  multiplier      1    8[COMMON] unsigned char 
  5832 ;;  word_mpld       2    6[COMMON] unsigned short 
  5833 ;;  product         2    4[COMMON] unsigned short 
  5834 ;; Return value:  Size  Location     Type
  5835 ;;                  2    0[COMMON] unsigned int 
  5836 ;; Registers used:
  5837 ;;		wreg, status,2, status,0
  5838 ;; Tracked objects:
  5839 ;;		On entry : 0/0
  5840 ;;		On exit  : 0/0
  5841 ;;		Unchanged: 0/0
  5842 ;; Data sizes:     COMMON   BANK0   BANK1   BANK3   BANK2
  5843 ;;      Params:         2       0       0       0       0
  5844 ;;      Locals:         5       0       0       0       0
  5845 ;;      Temps:          2       0       0       0       0
  5846 ;;      Totals:         9       0       0       0       0
  5847 ;;Total ram usage:        9 bytes
  5848 ;; Hardware stack levels used: 1
  5849 ;; This function calls:
  5850 ;;		Nothing
  5851 ;; This function is called by:
  5852 ;;		___flmul
  5853 ;; This function uses a non-reentrant model
  5854 ;;
  5855                           
  5856     109F                     __Umul8_16:	
  5857                           ;psect for function __Umul8_16
  5858                           
  5859                           
  5860                           ;incstack = 0
  5861                           ; Regs used in __Umul8_16: [wreg+status,2+status,0]
  5862                           ;__Umul8_16@multiplier stored from wreg
  5863     109F  00F8               	movwf	__Umul8_16@multiplier
  5864     10A0                     l2272:
  5865     10A0  01F4               	clrf	__Umul8_16@product
  5866     10A1  01F5               	clrf	__Umul8_16@product+1
  5867     10A2                     l2274:
  5868     10A2  0870               	movf	__Umul8_16@multiplicand,w
  5869     10A3  00F2               	movwf	??__Umul8_16
  5870     10A4  01F3               	clrf	??__Umul8_16+1
  5871     10A5  0872               	movf	??__Umul8_16,w
  5872     10A6  00F6               	movwf	__Umul8_16@word_mpld
  5873     10A7  0873               	movf	??__Umul8_16+1,w
  5874     10A8  00F7               	movwf	__Umul8_16@word_mpld+1
  5875     10A9                     l2276:
  5876     10A9  1C78               	btfss	__Umul8_16@multiplier,0
  5877     10AA  28AC               	goto	u2831
  5878     10AB  28AD               	goto	u2830
  5879     10AC                     u2831:
  5880     10AC  28B3               	goto	l557
  5881     10AD                     u2830:
  5882     10AD                     l2278:
  5883     10AD  0876               	movf	__Umul8_16@word_mpld,w
  5884     10AE  07F4               	addwf	__Umul8_16@product,f
  5885     10AF  1803               	skipnc
  5886     10B0  0AF5               	incf	__Umul8_16@product+1,f
  5887     10B1  0877               	movf	__Umul8_16@word_mpld+1,w
  5888     10B2  07F5               	addwf	__Umul8_16@product+1,f
  5889     10B3                     l557:
  5890     10B3  3001               	movlw	1
  5891     10B4                     u2845:
  5892     10B4  1003               	clrc
  5893     10B5  0DF6               	rlf	__Umul8_16@word_mpld,f
  5894     10B6  0DF7               	rlf	__Umul8_16@word_mpld+1,f
  5895     10B7  3EFF               	addlw	-1
  5896     10B8  1D03               	skipz
  5897     10B9  28B4               	goto	u2845
  5898     10BA  1003               	clrc
  5899     10BB  0CF8               	rrf	__Umul8_16@multiplier,f
  5900     10BC                     l2280:
  5901     10BC  0878               	movf	__Umul8_16@multiplier,w
  5902     10BD  1D03               	btfss	3,2
  5903     10BE  28C0               	goto	u2851
  5904     10BF  28C1               	goto	u2850
  5905     10C0                     u2851:
  5906     10C0  28A9               	goto	l2276
  5907     10C1                     u2850:
  5908     10C1                     l2282:
  5909     10C1  0875               	movf	__Umul8_16@product+1,w
  5910     10C2  00F1               	movwf	?__Umul8_16+1
  5911     10C3  0874               	movf	__Umul8_16@product,w
  5912     10C4  00F0               	movwf	?__Umul8_16
  5913     10C5                     l559:
  5914     10C5  0008               	return
  5915     10C6                     __end_of__Umul8_16:
  5916                           
  5917                           	psect	text22
  5918     1367                     __ptext22:	
  5919 ;; *************** function ___flge *****************
  5920 ;; Defined at:
  5921 ;;		line 4 in file "C:\Program Files\Microchip\xc8\v2.45\pic\sources\c99\common\flge.c"
  5922 ;; Parameters:    Size  Location     Type
  5923 ;;  ff1             4   26[BANK0 ] unsigned int 
  5924 ;;  ff2             4   30[BANK0 ] unsigned int 
  5925 ;; Auto vars:     Size  Location     Type
  5926 ;;		None
  5927 ;; Return value:  Size  Location     Type
  5928 ;;		None               void
  5929 ;; Registers used:
  5930 ;;		wreg, status,2, status,0
  5931 ;; Tracked objects:
  5932 ;;		On entry : 0/0
  5933 ;;		On exit  : 0/0
  5934 ;;		Unchanged: 0/0
  5935 ;; Data sizes:     COMMON   BANK0   BANK1   BANK3   BANK2
  5936 ;;      Params:         0       8       0       0       0
  5937 ;;      Locals:         0       0       0       0       0
  5938 ;;      Temps:          0       4       0       0       0
  5939 ;;      Totals:         0      12       0       0       0
  5940 ;;Total ram usage:       12 bytes
  5941 ;; Hardware stack levels used: 1
  5942 ;; This function calls:
  5943 ;;		Nothing
  5944 ;; This function is called by:
  5945 ;;		_efgtoa
  5946 ;; This function uses a non-reentrant model
  5947 ;;
  5948                           
  5949     1367                     ___flge:	
  5950                           ;psect for function ___flge
  5951                           
  5952     1367                     l2320:	
  5953                           ;incstack = 0
  5954                           ; Regs used in ___flge: [wreg+status,2+status,0]
  5955                           
  5956     1367  3000               	movlw	0
  5957     1368  1283               	bcf	3,5	;RP0=0, select bank0
  5958     1369  1303               	bcf	3,6	;RP1=0, select bank0
  5959     136A  053A               	andwf	___flge@ff1,w
  5960     136B  00C2               	movwf	??___flge
  5961     136C  3000               	movlw	0
  5962     136D  053B               	andwf	___flge@ff1+1,w
  5963     136E  00C3               	movwf	??___flge+1
  5964     136F  3080               	movlw	128
  5965     1370  053C               	andwf	___flge@ff1+2,w
  5966     1371  00C4               	movwf	??___flge+2
  5967     1372  307F               	movlw	127
  5968     1373  053D               	andwf	___flge@ff1+3,w
  5969     1374  00C5               	movwf	??___flge+3
  5970     1375  0845               	movf	??___flge+3,w
  5971     1376  0444               	iorwf	??___flge+2,w
  5972     1377  0443               	iorwf	??___flge+1,w
  5973     1378  0442               	iorwf	??___flge,w
  5974     1379  1D03               	skipz
  5975     137A  2B7C               	goto	u2941
  5976     137B  2B7D               	goto	u2940
  5977     137C                     u2941:
  5978     137C  2B85               	goto	l319
  5979     137D                     u2940:
  5980     137D                     l2322:
  5981     137D  3000               	movlw	0
  5982     137E  00BD               	movwf	___flge@ff1+3
  5983     137F  3000               	movlw	0
  5984     1380  00BC               	movwf	___flge@ff1+2
  5985     1381  3000               	movlw	0
  5986     1382  00BB               	movwf	___flge@ff1+1
  5987     1383  3000               	movlw	0
  5988     1384  00BA               	movwf	___flge@ff1
  5989     1385                     l319:
  5990     1385  3000               	movlw	0
  5991     1386  053E               	andwf	___flge@ff2,w
  5992     1387  00C2               	movwf	??___flge
  5993     1388  3000               	movlw	0
  5994     1389  053F               	andwf	___flge@ff2+1,w
  5995     138A  00C3               	movwf	??___flge+1
  5996     138B  3080               	movlw	128
  5997     138C  0540               	andwf	___flge@ff2+2,w
  5998     138D  00C4               	movwf	??___flge+2
  5999     138E  307F               	movlw	127
  6000     138F  0541               	andwf	___flge@ff2+3,w
  6001     1390  00C5               	movwf	??___flge+3
  6002     1391  0845               	movf	??___flge+3,w
  6003     1392  0444               	iorwf	??___flge+2,w
  6004     1393  0443               	iorwf	??___flge+1,w
  6005     1394  0442               	iorwf	??___flge,w
  6006     1395  1D03               	skipz
  6007     1396  2B98               	goto	u2951
  6008     1397  2B99               	goto	u2950
  6009     1398                     u2951:
  6010     1398  2BA1               	goto	l2326
  6011     1399                     u2950:
  6012     1399                     l2324:
  6013     1399  3000               	movlw	0
  6014     139A  00C1               	movwf	___flge@ff2+3
  6015     139B  3000               	movlw	0
  6016     139C  00C0               	movwf	___flge@ff2+2
  6017     139D  3000               	movlw	0
  6018     139E  00BF               	movwf	___flge@ff2+1
  6019     139F  3000               	movlw	0
  6020     13A0  00BE               	movwf	___flge@ff2
  6021     13A1                     l2326:
  6022     13A1  1FBD               	btfss	___flge@ff1+3,7
  6023     13A2  2BA4               	goto	u2961
  6024     13A3  2BA5               	goto	u2960
  6025     13A4                     u2961:
  6026     13A4  2BC9               	goto	l2330
  6027     13A5                     u2960:
  6028     13A5                     l2328:
  6029     13A5  3000               	movlw	0
  6030     13A6  00C2               	movwf	??___flge
  6031     13A7  3000               	movlw	0
  6032     13A8  00C3               	movwf	??___flge+1
  6033     13A9  3000               	movlw	0
  6034     13AA  00C4               	movwf	??___flge+2
  6035     13AB  3080               	movlw	128
  6036     13AC  00C5               	movwf	??___flge+3
  6037     13AD  083A               	movf	___flge@ff1,w
  6038     13AE  02C2               	subwf	??___flge,f
  6039     13AF  083B               	movf	___flge@ff1+1,w
  6040     13B0  1C03               	skipc
  6041     13B1  0F3B               	incfsz	___flge@ff1+1,w
  6042     13B2  2BB4               	goto	u2971
  6043     13B3  2BB5               	goto	u2972
  6044     13B4                     u2971:
  6045     13B4  02C3               	subwf	??___flge+1,f
  6046     13B5                     u2972:
  6047     13B5  083C               	movf	___flge@ff1+2,w
  6048     13B6  1C03               	skipc
  6049     13B7  0F3C               	incfsz	___flge@ff1+2,w
  6050     13B8  2BBA               	goto	u2973
  6051     13B9  2BBB               	goto	u2974
  6052     13BA                     u2973:
  6053     13BA  02C4               	subwf	??___flge+2,f
  6054     13BB                     u2974:
  6055     13BB  083D               	movf	___flge@ff1+3,w
  6056     13BC  1C03               	skipc
  6057     13BD  0F3D               	incfsz	___flge@ff1+3,w
  6058     13BE  2BC0               	goto	u2975
  6059     13BF  2BC1               	goto	u2976
  6060     13C0                     u2975:
  6061     13C0  02C5               	subwf	??___flge+3,f
  6062     13C1                     u2976:
  6063     13C1  0845               	movf	??___flge+3,w
  6064     13C2  00BD               	movwf	___flge@ff1+3
  6065     13C3  0844               	movf	??___flge+2,w
  6066     13C4  00BC               	movwf	___flge@ff1+2
  6067     13C5  0843               	movf	??___flge+1,w
  6068     13C6  00BB               	movwf	___flge@ff1+1
  6069     13C7  0842               	movf	??___flge,w
  6070     13C8  00BA               	movwf	___flge@ff1
  6071     13C9                     l2330:
  6072     13C9  1FC1               	btfss	___flge@ff2+3,7
  6073     13CA  2BCC               	goto	u2981
  6074     13CB  2BCD               	goto	u2980
  6075     13CC                     u2981:
  6076     13CC  2BF1               	goto	l322
  6077     13CD                     u2980:
  6078     13CD                     l2332:
  6079     13CD  3000               	movlw	0
  6080     13CE  00C2               	movwf	??___flge
  6081     13CF  3000               	movlw	0
  6082     13D0  00C3               	movwf	??___flge+1
  6083     13D1  3000               	movlw	0
  6084     13D2  00C4               	movwf	??___flge+2
  6085     13D3  3080               	movlw	128
  6086     13D4  00C5               	movwf	??___flge+3
  6087     13D5  083E               	movf	___flge@ff2,w
  6088     13D6  02C2               	subwf	??___flge,f
  6089     13D7  083F               	movf	___flge@ff2+1,w
  6090     13D8  1C03               	skipc
  6091     13D9  0F3F               	incfsz	___flge@ff2+1,w
  6092     13DA  2BDC               	goto	u2991
  6093     13DB  2BDD               	goto	u2992
  6094     13DC                     u2991:
  6095     13DC  02C3               	subwf	??___flge+1,f
  6096     13DD                     u2992:
  6097     13DD  0840               	movf	___flge@ff2+2,w
  6098     13DE  1C03               	skipc
  6099     13DF  0F40               	incfsz	___flge@ff2+2,w
  6100     13E0  2BE2               	goto	u2993
  6101     13E1  2BE3               	goto	u2994
  6102     13E2                     u2993:
  6103     13E2  02C4               	subwf	??___flge+2,f
  6104     13E3                     u2994:
  6105     13E3  0841               	movf	___flge@ff2+3,w
  6106     13E4  1C03               	skipc
  6107     13E5  0F41               	incfsz	___flge@ff2+3,w
  6108     13E6  2BE8               	goto	u2995
  6109     13E7  2BE9               	goto	u2996
  6110     13E8                     u2995:
  6111     13E8  02C5               	subwf	??___flge+3,f
  6112     13E9                     u2996:
  6113     13E9  0845               	movf	??___flge+3,w
  6114     13EA  00C1               	movwf	___flge@ff2+3
  6115     13EB  0844               	movf	??___flge+2,w
  6116     13EC  00C0               	movwf	___flge@ff2+2
  6117     13ED  0843               	movf	??___flge+1,w
  6118     13EE  00BF               	movwf	___flge@ff2+1
  6119     13EF  0842               	movf	??___flge,w
  6120     13F0  00BE               	movwf	___flge@ff2
  6121     13F1                     l322:
  6122     13F1  3080               	movlw	128
  6123     13F2  06BD               	xorwf	___flge@ff1+3,f
  6124     13F3  3080               	movlw	128
  6125     13F4  06C1               	xorwf	___flge@ff2+3,f
  6126     13F5  0841               	movf	___flge@ff2+3,w
  6127     13F6  023D               	subwf	___flge@ff1+3,w
  6128     13F7  1D03               	skipz
  6129     13F8  2C03               	goto	u3005
  6130     13F9  0840               	movf	___flge@ff2+2,w
  6131     13FA  023C               	subwf	___flge@ff1+2,w
  6132     13FB  1D03               	skipz
  6133     13FC  2C03               	goto	u3005
  6134     13FD  083F               	movf	___flge@ff2+1,w
  6135     13FE  023B               	subwf	___flge@ff1+1,w
  6136     13FF  1D03               	skipz
  6137     1400  2C03               	goto	u3005
  6138     1401  083E               	movf	___flge@ff2,w
  6139     1402  023A               	subwf	___flge@ff1,w
  6140     1403                     u3005:
  6141     1403  1803               	skipnc
  6142     1404  2C06               	goto	u3001
  6143     1405  2C07               	goto	u3000
  6144     1406                     u3001:
  6145     1406  2C09               	goto	l2336
  6146     1407                     u3000:
  6147     1407                     l2334:
  6148     1407  1003               	clrc
  6149     1408  2C0A               	goto	l327
  6150     1409                     l2336:
  6151     1409  1403               	setc
  6152     140A                     l327:
  6153     140A  0008               	return
  6154     140B                     __end_of___flge:
  6155                           
  6156                           	psect	text23
  6157     11DE                     __ptext23:	
  6158 ;; *************** function ___fleq *****************
  6159 ;; Defined at:
  6160 ;;		line 4 in file "C:\Program Files\Microchip\xc8\v2.45\pic\sources\c99\common\fleq.c"
  6161 ;; Parameters:    Size  Location     Type
  6162 ;;  ff1             4    0[COMMON] unsigned int 
  6163 ;;  ff2             4    4[COMMON] unsigned int 
  6164 ;; Auto vars:     Size  Location     Type
  6165 ;;		None
  6166 ;; Return value:  Size  Location     Type
  6167 ;;		None               void
  6168 ;; Registers used:
  6169 ;;		wreg, status,2, status,0
  6170 ;; Tracked objects:
  6171 ;;		On entry : 0/0
  6172 ;;		On exit  : 0/0
  6173 ;;		Unchanged: 0/0
  6174 ;; Data sizes:     COMMON   BANK0   BANK1   BANK3   BANK2
  6175 ;;      Params:         8       0       0       0       0
  6176 ;;      Locals:         0       0       0       0       0
  6177 ;;      Temps:          4       0       0       0       0
  6178 ;;      Totals:        12       0       0       0       0
  6179 ;;Total ram usage:       12 bytes
  6180 ;; Hardware stack levels used: 1
  6181 ;; This function calls:
  6182 ;;		Nothing
  6183 ;; This function is called by:
  6184 ;;		_efgtoa
  6185 ;; This function uses a non-reentrant model
  6186 ;;
  6187                           
  6188     11DE                     ___fleq:	
  6189                           ;psect for function ___fleq
  6190                           
  6191     11DE                     l2308:	
  6192                           ;incstack = 0
  6193                           ; Regs used in ___fleq: [wreg+status,2+status,0]
  6194                           
  6195     11DE  3000               	movlw	0
  6196     11DF  0570               	andwf	___fleq@ff1,w
  6197     11E0  00F8               	movwf	??___fleq
  6198     11E1  3000               	movlw	0
  6199     11E2  0571               	andwf	___fleq@ff1+1,w
  6200     11E3  00F9               	movwf	??___fleq+1
  6201     11E4  3080               	movlw	128
  6202     11E5  0572               	andwf	___fleq@ff1+2,w
  6203     11E6  00FA               	movwf	??___fleq+2
  6204     11E7  307F               	movlw	127
  6205     11E8  0573               	andwf	___fleq@ff1+3,w
  6206     11E9  00FB               	movwf	??___fleq+3
  6207     11EA  087B               	movf	??___fleq+3,w
  6208     11EB  047A               	iorwf	??___fleq+2,w
  6209     11EC  0479               	iorwf	??___fleq+1,w
  6210     11ED  0478               	iorwf	??___fleq,w
  6211     11EE  1D03               	skipz
  6212     11EF  29F1               	goto	u2911
  6213     11F0  29F2               	goto	u2910
  6214     11F1                     u2911:
  6215     11F1  29FA               	goto	l310
  6216     11F2                     u2910:
  6217     11F2                     l2310:
  6218     11F2  3000               	movlw	0
  6219     11F3  00F3               	movwf	___fleq@ff1+3
  6220     11F4  3000               	movlw	0
  6221     11F5  00F2               	movwf	___fleq@ff1+2
  6222     11F6  3000               	movlw	0
  6223     11F7  00F1               	movwf	___fleq@ff1+1
  6224     11F8  3000               	movlw	0
  6225     11F9  00F0               	movwf	___fleq@ff1
  6226     11FA                     l310:
  6227     11FA  3000               	movlw	0
  6228     11FB  0574               	andwf	___fleq@ff2,w
  6229     11FC  00F8               	movwf	??___fleq
  6230     11FD  3000               	movlw	0
  6231     11FE  0575               	andwf	___fleq@ff2+1,w
  6232     11FF  00F9               	movwf	??___fleq+1
  6233     1200  3080               	movlw	128
  6234     1201  0576               	andwf	___fleq@ff2+2,w
  6235     1202  00FA               	movwf	??___fleq+2
  6236     1203  307F               	movlw	127
  6237     1204  0577               	andwf	___fleq@ff2+3,w
  6238     1205  00FB               	movwf	??___fleq+3
  6239     1206  087B               	movf	??___fleq+3,w
  6240     1207  047A               	iorwf	??___fleq+2,w
  6241     1208  0479               	iorwf	??___fleq+1,w
  6242     1209  0478               	iorwf	??___fleq,w
  6243     120A  1D03               	skipz
  6244     120B  2A0D               	goto	u2921
  6245     120C  2A0E               	goto	u2920
  6246     120D                     u2921:
  6247     120D  2A16               	goto	l311
  6248     120E                     u2920:
  6249     120E                     l2312:
  6250     120E  3000               	movlw	0
  6251     120F  00F7               	movwf	___fleq@ff2+3
  6252     1210  3000               	movlw	0
  6253     1211  00F6               	movwf	___fleq@ff2+2
  6254     1212  3000               	movlw	0
  6255     1213  00F5               	movwf	___fleq@ff2+1
  6256     1214  3000               	movlw	0
  6257     1215  00F4               	movwf	___fleq@ff2
  6258     1216                     l311:
  6259     1216  0877               	movf	___fleq@ff2+3,w
  6260     1217  0673               	xorwf	___fleq@ff1+3,w
  6261     1218  1D03               	skipz
  6262     1219  2A24               	goto	u2935
  6263     121A  0876               	movf	___fleq@ff2+2,w
  6264     121B  0672               	xorwf	___fleq@ff1+2,w
  6265     121C  1D03               	skipz
  6266     121D  2A24               	goto	u2935
  6267     121E  0875               	movf	___fleq@ff2+1,w
  6268     121F  0671               	xorwf	___fleq@ff1+1,w
  6269     1220  1D03               	skipz
  6270     1221  2A24               	goto	u2935
  6271     1222  0874               	movf	___fleq@ff2,w
  6272     1223  0670               	xorwf	___fleq@ff1,w
  6273     1224                     u2935:
  6274     1224  1903               	skipnz
  6275     1225  2A27               	goto	u2931
  6276     1226  2A28               	goto	u2930
  6277     1227                     u2931:
  6278     1227  2A2A               	goto	l2316
  6279     1228                     u2930:
  6280     1228                     l2314:
  6281     1228  1003               	clrc
  6282     1229  2A2B               	goto	l316
  6283     122A                     l2316:
  6284     122A  1403               	setc
  6285     122B                     l316:
  6286     122B  0008               	return
  6287     122C                     __end_of___fleq:
  6288                           
  6289                           	psect	text24
  6290     0882                     __ptext24:	
  6291 ;; *************** function ___fldiv *****************
  6292 ;; Defined at:
  6293 ;;		line 8 in file "C:\Program Files\Microchip\xc8\v2.45\pic\sources\c99\common\sprcdiv.c"
  6294 ;; Parameters:    Size  Location     Type
  6295 ;;  a               4    0[COMMON] unsigned int 
  6296 ;;  b               4    4[COMMON] unsigned int 
  6297 ;; Auto vars:     Size  Location     Type
  6298 ;;  grs             4    7[BANK0 ] unsigned long 
  6299 ;;  rem             4    0[BANK0 ] unsigned long 
  6300 ;;  new_exp         2    5[BANK0 ] short 
  6301 ;;  aexp            1   12[BANK0 ] unsigned char 
  6302 ;;  bexp            1   11[BANK0 ] unsigned char 
  6303 ;;  sign            1    4[BANK0 ] unsigned char 
  6304 ;; Return value:  Size  Location     Type
  6305 ;;                  4    0[COMMON] unsigned char 
  6306 ;; Registers used:
  6307 ;;		wreg, status,2, status,0, btemp+1
  6308 ;; Tracked objects:
  6309 ;;		On entry : 0/0
  6310 ;;		On exit  : 0/0
  6311 ;;		Unchanged: 0/0
  6312 ;; Data sizes:     COMMON   BANK0   BANK1   BANK3   BANK2
  6313 ;;      Params:         8       0       0       0       0
  6314 ;;      Locals:         0      13       0       0       0
  6315 ;;      Temps:          5       0       0       0       0
  6316 ;;      Totals:        13      13       0       0       0
  6317 ;;Total ram usage:       26 bytes
  6318 ;; Hardware stack levels used: 1
  6319 ;; This function calls:
  6320 ;;		Nothing
  6321 ;; This function is called by:
  6322 ;;		_main
  6323 ;;		_efgtoa
  6324 ;; This function uses a non-reentrant model
  6325 ;;
  6326                           
  6327     0882                     ___fldiv:	
  6328                           ;psect for function ___fldiv
  6329                           
  6330     0882                     l2392:	
  6331                           ;incstack = 0
  6332                           ; Regs used in ___fldiv: [wreg+status,2+status,0+btemp+1]
  6333                           
  6334     0882  0877               	movf	___fldiv@b+3,w
  6335     0883  3980               	andlw	128
  6336     0884  1283               	bcf	3,5	;RP0=0, select bank0
  6337     0885  1303               	bcf	3,6	;RP1=0, select bank0
  6338     0886  00A4               	movwf	___fldiv@sign
  6339     0887                     l2394:
  6340     0887  0877               	movf	___fldiv@b+3,w
  6341     0888  00F8               	movwf	??___fldiv
  6342     0889  0778               	addwf	??___fldiv,w
  6343     088A  00AB               	movwf	___fldiv@bexp
  6344     088B                     l2396:
  6345     088B  1FF6               	btfss	___fldiv@b+2,7
  6346     088C  288E               	goto	u3121
  6347     088D  288F               	goto	u3120
  6348     088E                     u3121:
  6349     088E  2890               	goto	l2400
  6350     088F                     u3120:
  6351     088F                     l2398:
  6352     088F  142B               	bsf	___fldiv@bexp,0
  6353     0890                     l2400:
  6354     0890  082B               	movf	___fldiv@bexp,w
  6355     0891  1903               	btfsc	3,2
  6356     0892  2894               	goto	u3131
  6357     0893  2895               	goto	u3130
  6358     0894                     u3131:
  6359     0894  28A5               	goto	l2410
  6360     0895                     u3130:
  6361     0895                     l2402:
  6362     0895  0A2B               	incf	___fldiv@bexp,w
  6363     0896  1D03               	btfss	3,2
  6364     0897  2899               	goto	u3141
  6365     0898  289A               	goto	u3140
  6366     0899                     u3141:
  6367     0899  28A2               	goto	l2406
  6368     089A                     u3140:
  6369     089A                     l2404:
  6370     089A  3000               	movlw	0
  6371     089B  00F7               	movwf	___fldiv@b+3
  6372     089C  3000               	movlw	0
  6373     089D  00F6               	movwf	___fldiv@b+2
  6374     089E  3000               	movlw	0
  6375     089F  00F5               	movwf	___fldiv@b+1
  6376     08A0  3000               	movlw	0
  6377     08A1  00F4               	movwf	___fldiv@b
  6378     08A2                     l2406:
  6379     08A2  17F6               	bsf	___fldiv@b+2,7
  6380     08A3                     l2408:
  6381     08A3  01F7               	clrf	___fldiv@b+3
  6382     08A4  28AD               	goto	l2412
  6383     08A5                     l2410:
  6384     08A5  3000               	movlw	0
  6385     08A6  00F7               	movwf	___fldiv@b+3
  6386     08A7  3000               	movlw	0
  6387     08A8  00F6               	movwf	___fldiv@b+2
  6388     08A9  3000               	movlw	0
  6389     08AA  00F5               	movwf	___fldiv@b+1
  6390     08AB  3000               	movlw	0
  6391     08AC  00F4               	movwf	___fldiv@b
  6392     08AD                     l2412:
  6393     08AD  0873               	movf	___fldiv@a+3,w
  6394     08AE  3980               	andlw	128
  6395     08AF  00FF               	movwf	btemp+1
  6396     08B0  087F               	movf	btemp+1,w
  6397     08B1  06A4               	xorwf	___fldiv@sign,f
  6398     08B2                     l2414:
  6399     08B2  0873               	movf	___fldiv@a+3,w
  6400     08B3  00F8               	movwf	??___fldiv
  6401     08B4  0778               	addwf	??___fldiv,w
  6402     08B5  00AC               	movwf	___fldiv@aexp
  6403     08B6                     l2416:
  6404     08B6  1FF2               	btfss	___fldiv@a+2,7
  6405     08B7  28B9               	goto	u3151
  6406     08B8  28BA               	goto	u3150
  6407     08B9                     u3151:
  6408     08B9  28BB               	goto	l2420
  6409     08BA                     u3150:
  6410     08BA                     l2418:
  6411     08BA  142C               	bsf	___fldiv@aexp,0
  6412     08BB                     l2420:
  6413     08BB  082C               	movf	___fldiv@aexp,w
  6414     08BC  1903               	btfsc	3,2
  6415     08BD  28BF               	goto	u3161
  6416     08BE  28C0               	goto	u3160
  6417     08BF                     u3161:
  6418     08BF  28D0               	goto	l2430
  6419     08C0                     u3160:
  6420     08C0                     l2422:
  6421     08C0  0A2C               	incf	___fldiv@aexp,w
  6422     08C1  1D03               	btfss	3,2
  6423     08C2  28C4               	goto	u3171
  6424     08C3  28C5               	goto	u3170
  6425     08C4                     u3171:
  6426     08C4  28CD               	goto	l2426
  6427     08C5                     u3170:
  6428     08C5                     l2424:
  6429     08C5  3000               	movlw	0
  6430     08C6  00F3               	movwf	___fldiv@a+3
  6431     08C7  3000               	movlw	0
  6432     08C8  00F2               	movwf	___fldiv@a+2
  6433     08C9  3000               	movlw	0
  6434     08CA  00F1               	movwf	___fldiv@a+1
  6435     08CB  3000               	movlw	0
  6436     08CC  00F0               	movwf	___fldiv@a
  6437     08CD                     l2426:
  6438     08CD  17F2               	bsf	___fldiv@a+2,7
  6439     08CE                     l2428:
  6440     08CE  01F3               	clrf	___fldiv@a+3
  6441     08CF  28D8               	goto	l498
  6442     08D0                     l2430:
  6443     08D0  3000               	movlw	0
  6444     08D1  00F3               	movwf	___fldiv@a+3
  6445     08D2  3000               	movlw	0
  6446     08D3  00F2               	movwf	___fldiv@a+2
  6447     08D4  3000               	movlw	0
  6448     08D5  00F1               	movwf	___fldiv@a+1
  6449     08D6  3000               	movlw	0
  6450     08D7  00F0               	movwf	___fldiv@a
  6451     08D8                     l498:
  6452     08D8  0873               	movf	___fldiv@a+3,w
  6453     08D9  0472               	iorwf	___fldiv@a+2,w
  6454     08DA  0471               	iorwf	___fldiv@a+1,w
  6455     08DB  0470               	iorwf	___fldiv@a,w
  6456     08DC  1D03               	skipz
  6457     08DD  28DF               	goto	u3181
  6458     08DE  28E0               	goto	u3180
  6459     08DF                     u3181:
  6460     08DF  28F9               	goto	l2440
  6461     08E0                     u3180:
  6462     08E0                     l2432:
  6463     08E0  3000               	movlw	0
  6464     08E1  00F7               	movwf	___fldiv@b+3
  6465     08E2  3000               	movlw	0
  6466     08E3  00F6               	movwf	___fldiv@b+2
  6467     08E4  3000               	movlw	0
  6468     08E5  00F5               	movwf	___fldiv@b+1
  6469     08E6  3000               	movlw	0
  6470     08E7  00F4               	movwf	___fldiv@b
  6471     08E8  3080               	movlw	128
  6472     08E9  04F6               	iorwf	___fldiv@b+2,f
  6473     08EA  307F               	movlw	127
  6474     08EB  04F7               	iorwf	___fldiv@b+3,f
  6475     08EC                     l2434:
  6476     08EC  0824               	movf	___fldiv@sign,w
  6477     08ED  00FF               	movwf	btemp+1
  6478     08EE  087F               	movf	btemp+1,w
  6479     08EF  04F7               	iorwf	___fldiv@b+3,f
  6480     08F0                     l2436:
  6481     08F0  0877               	movf	___fldiv@b+3,w
  6482     08F1  00F3               	movwf	?___fldiv+3
  6483     08F2  0876               	movf	___fldiv@b+2,w
  6484     08F3  00F2               	movwf	?___fldiv+2
  6485     08F4  0875               	movf	___fldiv@b+1,w
  6486     08F5  00F1               	movwf	?___fldiv+1
  6487     08F6  0874               	movf	___fldiv@b,w
  6488     08F7  00F0               	movwf	?___fldiv
  6489     08F8  2A56               	goto	l500
  6490     08F9                     l2440:
  6491     08F9  082B               	movf	___fldiv@bexp,w
  6492     08FA  1D03               	btfss	3,2
  6493     08FB  28FD               	goto	u3191
  6494     08FC  28FE               	goto	u3190
  6495     08FD                     u3191:
  6496     08FD  2907               	goto	l2446
  6497     08FE                     u3190:
  6498     08FE                     l2442:
  6499     08FE  3000               	movlw	0
  6500     08FF  00F3               	movwf	?___fldiv+3
  6501     0900  3000               	movlw	0
  6502     0901  00F2               	movwf	?___fldiv+2
  6503     0902  3000               	movlw	0
  6504     0903  00F1               	movwf	?___fldiv+1
  6505     0904  3000               	movlw	0
  6506     0905  00F0               	movwf	?___fldiv
  6507     0906  2A56               	goto	l500
  6508     0907                     l2446:
  6509     0907  082B               	movf	___fldiv@bexp,w
  6510     0908  00F8               	movwf	??___fldiv
  6511     0909  01F9               	clrf	??___fldiv+1
  6512     090A  0879               	movf	??___fldiv+1,w
  6513     090B  00FB               	movwf	??___fldiv+3
  6514     090C  082C               	movf	___fldiv@aexp,w
  6515     090D  0278               	subwf	??___fldiv,w
  6516     090E  00FA               	movwf	??___fldiv+2
  6517     090F  1C03               	skipc
  6518     0910  03FB               	decf	??___fldiv+3,f
  6519     0911  087A               	movf	??___fldiv+2,w
  6520     0912  3E7F               	addlw	127
  6521     0913  00A5               	movwf	___fldiv@new_exp
  6522     0914  087B               	movf	??___fldiv+3,w
  6523     0915  1803               	skipnc
  6524     0916  3E01               	addlw	1
  6525     0917  3E00               	addlw	0
  6526     0918  00A6               	movwf	___fldiv@new_exp+1
  6527     0919                     l2448:
  6528     0919  0877               	movf	___fldiv@b+3,w
  6529     091A  00A3               	movwf	___fldiv@rem+3
  6530     091B  0876               	movf	___fldiv@b+2,w
  6531     091C  00A2               	movwf	___fldiv@rem+2
  6532     091D  0875               	movf	___fldiv@b+1,w
  6533     091E  00A1               	movwf	___fldiv@rem+1
  6534     091F  0874               	movf	___fldiv@b,w
  6535     0920  00A0               	movwf	___fldiv@rem
  6536     0921                     l2450:
  6537     0921  3000               	movlw	0
  6538     0922  00F7               	movwf	___fldiv@b+3
  6539     0923  3000               	movlw	0
  6540     0924  00F6               	movwf	___fldiv@b+2
  6541     0925  3000               	movlw	0
  6542     0926  00F5               	movwf	___fldiv@b+1
  6543     0927  3000               	movlw	0
  6544     0928  00F4               	movwf	___fldiv@b
  6545     0929                     l2452:
  6546     0929  3000               	movlw	0
  6547     092A  00AA               	movwf	___fldiv@grs+3
  6548     092B  3000               	movlw	0
  6549     092C  00A9               	movwf	___fldiv@grs+2
  6550     092D  3000               	movlw	0
  6551     092E  00A8               	movwf	___fldiv@grs+1
  6552     092F  3000               	movlw	0
  6553     0930  00A7               	movwf	___fldiv@grs
  6554     0931                     l2454:
  6555     0931  01AC               	clrf	___fldiv@aexp
  6556     0932  2983               	goto	l2474
  6557     0933                     l2456:
  6558     0933  082C               	movf	___fldiv@aexp,w
  6559     0934  1903               	btfsc	3,2
  6560     0935  2937               	goto	u3201
  6561     0936  2938               	goto	u3200
  6562     0937                     u3201:
  6563     0937  2958               	goto	l2466
  6564     0938                     u3200:
  6565     0938                     l2458:
  6566     0938  3001               	movlw	1
  6567     0939  00F8               	movwf	??___fldiv
  6568     093A                     u3215:
  6569     093A  1003               	clrc
  6570     093B  0DA0               	rlf	___fldiv@rem,f
  6571     093C  0DA1               	rlf	___fldiv@rem+1,f
  6572     093D  0DA2               	rlf	___fldiv@rem+2,f
  6573     093E  0DA3               	rlf	___fldiv@rem+3,f
  6574     093F  0BF8               	decfsz	??___fldiv,f
  6575     0940  293A               	goto	u3215
  6576     0941  3001               	movlw	1
  6577     0942  00F8               	movwf	??___fldiv
  6578     0943                     u3225:
  6579     0943  1003               	clrc
  6580     0944  0DF4               	rlf	___fldiv@b,f
  6581     0945  0DF5               	rlf	___fldiv@b+1,f
  6582     0946  0DF6               	rlf	___fldiv@b+2,f
  6583     0947  0DF7               	rlf	___fldiv@b+3,f
  6584     0948  0BF8               	decfsz	??___fldiv,f
  6585     0949  2943               	goto	u3225
  6586     094A                     l2460:
  6587     094A  1FAA               	btfss	___fldiv@grs+3,7
  6588     094B  294D               	goto	u3231
  6589     094C  294E               	goto	u3230
  6590     094D                     u3231:
  6591     094D  294F               	goto	l2464
  6592     094E                     u3230:
  6593     094E                     l2462:
  6594     094E  1474               	bsf	___fldiv@b,0
  6595     094F                     l2464:
  6596     094F  3001               	movlw	1
  6597     0950  00F8               	movwf	??___fldiv
  6598     0951                     u3245:
  6599     0951  1003               	clrc
  6600     0952  0DA7               	rlf	___fldiv@grs,f
  6601     0953  0DA8               	rlf	___fldiv@grs+1,f
  6602     0954  0DA9               	rlf	___fldiv@grs+2,f
  6603     0955  0DAA               	rlf	___fldiv@grs+3,f
  6604     0956  0BF8               	decfsz	??___fldiv,f
  6605     0957  2951               	goto	u3245
  6606     0958                     l2466:
  6607     0958  0873               	movf	___fldiv@a+3,w
  6608     0959  0223               	subwf	___fldiv@rem+3,w
  6609     095A  1D03               	skipz
  6610     095B  2966               	goto	u3255
  6611     095C  0872               	movf	___fldiv@a+2,w
  6612     095D  0222               	subwf	___fldiv@rem+2,w
  6613     095E  1D03               	skipz
  6614     095F  2966               	goto	u3255
  6615     0960  0871               	movf	___fldiv@a+1,w
  6616     0961  0221               	subwf	___fldiv@rem+1,w
  6617     0962  1D03               	skipz
  6618     0963  2966               	goto	u3255
  6619     0964  0870               	movf	___fldiv@a,w
  6620     0965  0220               	subwf	___fldiv@rem,w
  6621     0966                     u3255:
  6622     0966  1C03               	skipc
  6623     0967  2969               	goto	u3251
  6624     0968  296A               	goto	u3250
  6625     0969                     u3251:
  6626     0969  297F               	goto	l2472
  6627     096A                     u3250:
  6628     096A                     l2468:
  6629     096A  172A               	bsf	___fldiv@grs+3,6
  6630     096B                     l2470:
  6631     096B  0870               	movf	___fldiv@a,w
  6632     096C  02A0               	subwf	___fldiv@rem,f
  6633     096D  0871               	movf	___fldiv@a+1,w
  6634     096E  1C03               	skipc
  6635     096F  0F71               	incfsz	___fldiv@a+1,w
  6636     0970  2972               	goto	u3265
  6637     0971  2973               	goto	u3266
  6638     0972                     u3265:
  6639     0972  02A1               	subwf	___fldiv@rem+1,f
  6640     0973                     u3266:
  6641     0973  0872               	movf	___fldiv@a+2,w
  6642     0974  1C03               	skipc
  6643     0975  0F72               	incfsz	___fldiv@a+2,w
  6644     0976  2978               	goto	u3267
  6645     0977  2979               	goto	u3268
  6646     0978                     u3267:
  6647     0978  02A2               	subwf	___fldiv@rem+2,f
  6648     0979                     u3268:
  6649     0979  0873               	movf	___fldiv@a+3,w
  6650     097A  1C03               	skipc
  6651     097B  0F73               	incfsz	___fldiv@a+3,w
  6652     097C  297E               	goto	u3269
  6653     097D  297F               	goto	u3260
  6654     097E                     u3269:
  6655     097E  02A3               	subwf	___fldiv@rem+3,f
  6656     097F                     u3260:
  6657     097F                     l2472:
  6658     097F  3001               	movlw	1
  6659     0980  00FF               	movwf	btemp+1
  6660     0981  087F               	movf	btemp+1,w
  6661     0982  07AC               	addwf	___fldiv@aexp,f
  6662     0983                     l2474:
  6663     0983  301A               	movlw	26
  6664     0984  022C               	subwf	___fldiv@aexp,w
  6665     0985  1C03               	skipc
  6666     0986  2988               	goto	u3271
  6667     0987  2989               	goto	u3270
  6668     0988                     u3271:
  6669     0988  2933               	goto	l2456
  6670     0989                     u3270:
  6671     0989                     l2476:
  6672     0989  0823               	movf	___fldiv@rem+3,w
  6673     098A  0422               	iorwf	___fldiv@rem+2,w
  6674     098B  0421               	iorwf	___fldiv@rem+1,w
  6675     098C  0420               	iorwf	___fldiv@rem,w
  6676     098D  1903               	skipnz
  6677     098E  2990               	goto	u3281
  6678     098F  2991               	goto	u3280
  6679     0990                     u3281:
  6680     0990  29B0               	goto	l2490
  6681     0991                     u3280:
  6682     0991                     l2478:
  6683     0991  1427               	bsf	___fldiv@grs,0
  6684     0992  29B0               	goto	l2490
  6685     0993                     l2480:
  6686     0993  3001               	movlw	1
  6687     0994  00F8               	movwf	??___fldiv
  6688     0995                     u3295:
  6689     0995  1003               	clrc
  6690     0996  0DF4               	rlf	___fldiv@b,f
  6691     0997  0DF5               	rlf	___fldiv@b+1,f
  6692     0998  0DF6               	rlf	___fldiv@b+2,f
  6693     0999  0DF7               	rlf	___fldiv@b+3,f
  6694     099A  0BF8               	decfsz	??___fldiv,f
  6695     099B  2995               	goto	u3295
  6696     099C                     l2482:
  6697     099C  1FAA               	btfss	___fldiv@grs+3,7
  6698     099D  299F               	goto	u3301
  6699     099E  29A0               	goto	u3300
  6700     099F                     u3301:
  6701     099F  29A1               	goto	l2486
  6702     09A0                     u3300:
  6703     09A0                     l2484:
  6704     09A0  1474               	bsf	___fldiv@b,0
  6705     09A1                     l2486:
  6706     09A1  3001               	movlw	1
  6707     09A2  00F8               	movwf	??___fldiv
  6708     09A3                     u3315:
  6709     09A3  1003               	clrc
  6710     09A4  0DA7               	rlf	___fldiv@grs,f
  6711     09A5  0DA8               	rlf	___fldiv@grs+1,f
  6712     09A6  0DA9               	rlf	___fldiv@grs+2,f
  6713     09A7  0DAA               	rlf	___fldiv@grs+3,f
  6714     09A8  0BF8               	decfsz	??___fldiv,f
  6715     09A9  29A3               	goto	u3315
  6716     09AA                     l2488:
  6717     09AA  30FF               	movlw	255
  6718     09AB  07A5               	addwf	___fldiv@new_exp,f
  6719     09AC  1803               	skipnc
  6720     09AD  0AA6               	incf	___fldiv@new_exp+1,f
  6721     09AE  30FF               	movlw	255
  6722     09AF  07A6               	addwf	___fldiv@new_exp+1,f
  6723     09B0                     l2490:
  6724     09B0  1FF6               	btfss	___fldiv@b+2,7
  6725     09B1  29B3               	goto	u3321
  6726     09B2  29B4               	goto	u3320
  6727     09B3                     u3321:
  6728     09B3  2993               	goto	l2480
  6729     09B4                     u3320:
  6730     09B4                     l2492:
  6731     09B4  01AC               	clrf	___fldiv@aexp
  6732     09B5                     l2494:
  6733     09B5  1FAA               	btfss	___fldiv@grs+3,7
  6734     09B6  29B8               	goto	u3331
  6735     09B7  29B9               	goto	u3330
  6736     09B8                     u3331:
  6737     09B8  29D5               	goto	l2502
  6738     09B9                     u3330:
  6739     09B9                     l2496:
  6740     09B9  30FF               	movlw	255
  6741     09BA  0527               	andwf	___fldiv@grs,w
  6742     09BB  00F8               	movwf	??___fldiv
  6743     09BC  30FF               	movlw	255
  6744     09BD  0528               	andwf	___fldiv@grs+1,w
  6745     09BE  00F9               	movwf	??___fldiv+1
  6746     09BF  30FF               	movlw	255
  6747     09C0  0529               	andwf	___fldiv@grs+2,w
  6748     09C1  00FA               	movwf	??___fldiv+2
  6749     09C2  307F               	movlw	127
  6750     09C3  052A               	andwf	___fldiv@grs+3,w
  6751     09C4  00FB               	movwf	??___fldiv+3
  6752     09C5  087B               	movf	??___fldiv+3,w
  6753     09C6  047A               	iorwf	??___fldiv+2,w
  6754     09C7  0479               	iorwf	??___fldiv+1,w
  6755     09C8  0478               	iorwf	??___fldiv,w
  6756     09C9  1903               	skipnz
  6757     09CA  29CC               	goto	u3341
  6758     09CB  29CD               	goto	u3340
  6759     09CC                     u3341:
  6760     09CC  29D0               	goto	l514
  6761     09CD                     u3340:
  6762     09CD                     l2498:
  6763     09CD  01AC               	clrf	___fldiv@aexp
  6764     09CE  0AAC               	incf	___fldiv@aexp,f
  6765     09CF  29D5               	goto	l2502
  6766     09D0                     l514:
  6767     09D0  1C74               	btfss	___fldiv@b,0
  6768     09D1  29D3               	goto	u3351
  6769     09D2  29D4               	goto	u3350
  6770     09D3                     u3351:
  6771     09D3  29D5               	goto	l2502
  6772     09D4                     u3350:
  6773     09D4  29CD               	goto	l2498
  6774     09D5                     l2502:
  6775     09D5  082C               	movf	___fldiv@aexp,w
  6776     09D6  1903               	btfsc	3,2
  6777     09D7  29D9               	goto	u3361
  6778     09D8  29DA               	goto	u3360
  6779     09D9                     u3361:
  6780     09D9  2A0B               	goto	l2512
  6781     09DA                     u3360:
  6782     09DA                     l2504:
  6783     09DA  3001               	movlw	1
  6784     09DB  07F4               	addwf	___fldiv@b,f
  6785     09DC  3000               	movlw	0
  6786     09DD  1803               	skipnc
  6787     09DE  3001               	movlw	1
  6788     09DF  07F5               	addwf	___fldiv@b+1,f
  6789     09E0  3000               	movlw	0
  6790     09E1  1803               	skipnc
  6791     09E2  3001               	movlw	1
  6792     09E3  07F6               	addwf	___fldiv@b+2,f
  6793     09E4  3000               	movlw	0
  6794     09E5  1803               	skipnc
  6795     09E6  3001               	movlw	1
  6796     09E7  07F7               	addwf	___fldiv@b+3,f
  6797     09E8                     l2506:
  6798     09E8  1C77               	btfss	___fldiv@b+3,0
  6799     09E9  29EB               	goto	u3371
  6800     09EA  29EC               	goto	u3370
  6801     09EB                     u3371:
  6802     09EB  2A0B               	goto	l2512
  6803     09EC                     u3370:
  6804     09EC                     l2508:
  6805     09EC  0874               	movf	___fldiv@b,w
  6806     09ED  00F8               	movwf	??___fldiv
  6807     09EE  0875               	movf	___fldiv@b+1,w
  6808     09EF  00F9               	movwf	??___fldiv+1
  6809     09F0  0876               	movf	___fldiv@b+2,w
  6810     09F1  00FA               	movwf	??___fldiv+2
  6811     09F2  0877               	movf	___fldiv@b+3,w
  6812     09F3  00FB               	movwf	??___fldiv+3
  6813     09F4  3001               	movlw	1
  6814     09F5  00FC               	movwf	??___fldiv+4
  6815     09F6                     u3385:
  6816     09F6  0D7B               	rlf	??___fldiv+3,w
  6817     09F7  0CFB               	rrf	??___fldiv+3,f
  6818     09F8  0CFA               	rrf	??___fldiv+2,f
  6819     09F9  0CF9               	rrf	??___fldiv+1,f
  6820     09FA  0CF8               	rrf	??___fldiv,f
  6821     09FB                     u3380:
  6822     09FB  0BFC               	decfsz	??___fldiv+4,f
  6823     09FC  29F6               	goto	u3385
  6824     09FD  087B               	movf	??___fldiv+3,w
  6825     09FE  00F7               	movwf	___fldiv@b+3
  6826     09FF  087A               	movf	??___fldiv+2,w
  6827     0A00  00F6               	movwf	___fldiv@b+2
  6828     0A01  0879               	movf	??___fldiv+1,w
  6829     0A02  00F5               	movwf	___fldiv@b+1
  6830     0A03  0878               	movf	??___fldiv,w
  6831     0A04  00F4               	movwf	___fldiv@b
  6832     0A05                     l2510:
  6833     0A05  3001               	movlw	1
  6834     0A06  07A5               	addwf	___fldiv@new_exp,f
  6835     0A07  1803               	skipnc
  6836     0A08  0AA6               	incf	___fldiv@new_exp+1,f
  6837     0A09  3000               	movlw	0
  6838     0A0A  07A6               	addwf	___fldiv@new_exp+1,f
  6839     0A0B                     l2512:
  6840     0A0B  0826               	movf	___fldiv@new_exp+1,w
  6841     0A0C  3A80               	xorlw	128
  6842     0A0D  00FF               	movwf	btemp+1
  6843     0A0E  3080               	movlw	128
  6844     0A0F  027F               	subwf	btemp+1,w
  6845     0A10  1D03               	skipz
  6846     0A11  2A14               	goto	u3395
  6847     0A12  30FF               	movlw	255
  6848     0A13  0225               	subwf	___fldiv@new_exp,w
  6849     0A14                     u3395:
  6850     0A14  1C03               	skipc
  6851     0A15  2A17               	goto	u3391
  6852     0A16  2A18               	goto	u3390
  6853     0A17                     u3391:
  6854     0A17  2A26               	goto	l2516
  6855     0A18                     u3390:
  6856     0A18                     l2514:
  6857     0A18  30FF               	movlw	255
  6858     0A19  1283               	bcf	3,5	;RP0=0, select bank0
  6859     0A1A  1303               	bcf	3,6	;RP1=0, select bank0
  6860     0A1B  00A5               	movwf	___fldiv@new_exp
  6861     0A1C  3000               	movlw	0
  6862     0A1D  00A6               	movwf	___fldiv@new_exp+1
  6863     0A1E  3000               	movlw	0
  6864     0A1F  00F7               	movwf	___fldiv@b+3
  6865     0A20  3000               	movlw	0
  6866     0A21  00F6               	movwf	___fldiv@b+2
  6867     0A22  3000               	movlw	0
  6868     0A23  00F5               	movwf	___fldiv@b+1
  6869     0A24  3000               	movlw	0
  6870     0A25  00F4               	movwf	___fldiv@b
  6871     0A26                     l2516:
  6872     0A26  1283               	bcf	3,5	;RP0=0, select bank0
  6873     0A27  1303               	bcf	3,6	;RP1=0, select bank0
  6874     0A28  0826               	movf	___fldiv@new_exp+1,w
  6875     0A29  3A80               	xorlw	128
  6876     0A2A  00FF               	movwf	btemp+1
  6877     0A2B  3080               	movlw	128
  6878     0A2C  027F               	subwf	btemp+1,w
  6879     0A2D  1D03               	skipz
  6880     0A2E  2A31               	goto	u3405
  6881     0A2F  3001               	movlw	1
  6882     0A30  0225               	subwf	___fldiv@new_exp,w
  6883     0A31                     u3405:
  6884     0A31  1803               	skipnc
  6885     0A32  2A34               	goto	u3401
  6886     0A33  2A35               	goto	u3400
  6887     0A34                     u3401:
  6888     0A34  2A42               	goto	l520
  6889     0A35                     u3400:
  6890     0A35                     l2518:
  6891     0A35  1283               	bcf	3,5	;RP0=0, select bank0
  6892     0A36  1303               	bcf	3,6	;RP1=0, select bank0
  6893     0A37  01A5               	clrf	___fldiv@new_exp
  6894     0A38  01A6               	clrf	___fldiv@new_exp+1
  6895     0A39                     l2520:
  6896     0A39  3000               	movlw	0
  6897     0A3A  00F7               	movwf	___fldiv@b+3
  6898     0A3B  3000               	movlw	0
  6899     0A3C  00F6               	movwf	___fldiv@b+2
  6900     0A3D  3000               	movlw	0
  6901     0A3E  00F5               	movwf	___fldiv@b+1
  6902     0A3F  3000               	movlw	0
  6903     0A40  00F4               	movwf	___fldiv@b
  6904     0A41                     l2522:
  6905     0A41  01A4               	clrf	___fldiv@sign
  6906     0A42                     l520:
  6907     0A42  1283               	bcf	3,5	;RP0=0, select bank0
  6908     0A43  1303               	bcf	3,6	;RP1=0, select bank0
  6909     0A44  0825               	movf	___fldiv@new_exp,w
  6910     0A45  00AB               	movwf	___fldiv@bexp
  6911     0A46                     l2524:
  6912     0A46  1C2B               	btfss	___fldiv@bexp,0
  6913     0A47  2A49               	goto	u3411
  6914     0A48  2A4A               	goto	u3410
  6915     0A49                     u3411:
  6916     0A49  2A4C               	goto	l2528
  6917     0A4A                     u3410:
  6918     0A4A                     l2526:
  6919     0A4A  17F6               	bsf	___fldiv@b+2,7
  6920     0A4B  2A50               	goto	l2530
  6921     0A4C                     l2528:
  6922     0A4C  307F               	movlw	127
  6923     0A4D  00FF               	movwf	btemp+1
  6924     0A4E  087F               	movf	btemp+1,w
  6925     0A4F  05F6               	andwf	___fldiv@b+2,f
  6926     0A50                     l2530:
  6927     0A50  082B               	movf	___fldiv@bexp,w
  6928     0A51  00F8               	movwf	??___fldiv
  6929     0A52  1003               	clrc
  6930     0A53  0C78               	rrf	??___fldiv,w
  6931     0A54  00F7               	movwf	___fldiv@b+3
  6932     0A55  28EC               	goto	l2434
  6933     0A56                     l500:
  6934     0A56  0008               	return
  6935     0A57                     __end_of___fldiv:
  6936                           
  6937                           	psect	text25
  6938     0035                     __ptext25:	
  6939 ;; *************** function ___xxtofl *****************
  6940 ;; Defined at:
  6941 ;;		line 10 in file "C:\Program Files\Microchip\xc8\v2.45\pic\sources\c99\common\xxtofl.c"
  6942 ;; Parameters:    Size  Location     Type
  6943 ;;  sign            1    wreg     unsigned char 
  6944 ;;  val             4    0[COMMON] long 
  6945 ;; Auto vars:     Size  Location     Type
  6946 ;;  sign            1    8[COMMON] unsigned char 
  6947 ;;  arg             4   10[COMMON] unsigned long 
  6948 ;;  exp             1    9[COMMON] unsigned char 
  6949 ;; Return value:  Size  Location     Type
  6950 ;;                  4    0[COMMON] unsigned char 
  6951 ;; Registers used:
  6952 ;;		wreg, status,2, status,0, btemp+1
  6953 ;; Tracked objects:
  6954 ;;		On entry : 0/0
  6955 ;;		On exit  : 0/0
  6956 ;;		Unchanged: 0/0
  6957 ;; Data sizes:     COMMON   BANK0   BANK1   BANK3   BANK2
  6958 ;;      Params:         4       0       0       0       0
  6959 ;;      Locals:         6       0       0       0       0
  6960 ;;      Temps:          4       0       0       0       0
  6961 ;;      Totals:        14       0       0       0       0
  6962 ;;Total ram usage:       14 bytes
  6963 ;; Hardware stack levels used: 1
  6964 ;; This function calls:
  6965 ;;		Nothing
  6966 ;; This function is called by:
  6967 ;;		_main
  6968 ;; This function uses a non-reentrant model
  6969 ;;
  6970                           
  6971     0035                     ___xxtofl:	
  6972                           ;psect for function ___xxtofl
  6973                           
  6974                           
  6975                           ;incstack = 0
  6976                           ; Regs used in ___xxtofl: [wreg+status,2+status,0+btemp+1]
  6977                           ;___xxtofl@sign stored from wreg
  6978     0035  00F8               	movwf	___xxtofl@sign
  6979     0036                     l3166:
  6980     0036  0878               	movf	___xxtofl@sign,w
  6981     0037  1903               	btfsc	3,2
  6982     0038  283A               	goto	u4511
  6983     0039  283B               	goto	u4510
  6984     003A                     u4511:
  6985     003A  284F               	goto	l3172
  6986     003B                     u4510:
  6987     003B                     l3168:
  6988     003B  1FF3               	btfss	___xxtofl@val+3,7
  6989     003C  283E               	goto	u4521
  6990     003D  283F               	goto	u4520
  6991     003E                     u4521:
  6992     003E  284F               	goto	l3172
  6993     003F                     u4520:
  6994     003F                     l3170:
  6995     003F  0970               	comf	___xxtofl@val,w
  6996     0040  00FA               	movwf	___xxtofl@arg
  6997     0041  0971               	comf	___xxtofl@val+1,w
  6998     0042  00FB               	movwf	___xxtofl@arg+1
  6999     0043  0972               	comf	___xxtofl@val+2,w
  7000     0044  00FC               	movwf	___xxtofl@arg+2
  7001     0045  0973               	comf	___xxtofl@val+3,w
  7002     0046  00FD               	movwf	___xxtofl@arg+3
  7003     0047  0AFA               	incf	___xxtofl@arg,f
  7004     0048  1903               	skipnz
  7005     0049  0AFB               	incf	___xxtofl@arg+1,f
  7006     004A  1903               	skipnz
  7007     004B  0AFC               	incf	___xxtofl@arg+2,f
  7008     004C  1903               	skipnz
  7009     004D  0AFD               	incf	___xxtofl@arg+3,f
  7010     004E  2857               	goto	l582
  7011     004F                     l3172:
  7012     004F  0873               	movf	___xxtofl@val+3,w
  7013     0050  00FD               	movwf	___xxtofl@arg+3
  7014     0051  0872               	movf	___xxtofl@val+2,w
  7015     0052  00FC               	movwf	___xxtofl@arg+2
  7016     0053  0871               	movf	___xxtofl@val+1,w
  7017     0054  00FB               	movwf	___xxtofl@arg+1
  7018     0055  0870               	movf	___xxtofl@val,w
  7019     0056  00FA               	movwf	___xxtofl@arg
  7020     0057                     l582:
  7021     0057  0873               	movf	___xxtofl@val+3,w
  7022     0058  0472               	iorwf	___xxtofl@val+2,w
  7023     0059  0471               	iorwf	___xxtofl@val+1,w
  7024     005A  0470               	iorwf	___xxtofl@val,w
  7025     005B  1D03               	skipz
  7026     005C  285E               	goto	u4531
  7027     005D  285F               	goto	u4530
  7028     005E                     u4531:
  7029     005E  2868               	goto	l3178
  7030     005F                     u4530:
  7031     005F                     l3174:
  7032     005F  3000               	movlw	0
  7033     0060  00F3               	movwf	?___xxtofl+3
  7034     0061  3000               	movlw	0
  7035     0062  00F2               	movwf	?___xxtofl+2
  7036     0063  3000               	movlw	0
  7037     0064  00F1               	movwf	?___xxtofl+1
  7038     0065  3000               	movlw	0
  7039     0066  00F0               	movwf	?___xxtofl
  7040     0067  28EC               	goto	l584
  7041     0068                     l3178:
  7042     0068  3096               	movlw	150
  7043     0069  00F9               	movwf	___xxtofl@exp
  7044     006A  2878               	goto	l3184
  7045     006B                     l3180:
  7046     006B  3001               	movlw	1
  7047     006C  00FF               	movwf	btemp+1
  7048     006D  087F               	movf	btemp+1,w
  7049     006E  07F9               	addwf	___xxtofl@exp,f
  7050     006F                     l3182:
  7051     006F  3001               	movlw	1
  7052     0070                     u4545:
  7053     0070  1003               	clrc
  7054     0071  0CFD               	rrf	___xxtofl@arg+3,f
  7055     0072  0CFC               	rrf	___xxtofl@arg+2,f
  7056     0073  0CFB               	rrf	___xxtofl@arg+1,f
  7057     0074  0CFA               	rrf	___xxtofl@arg,f
  7058     0075  3EFF               	addlw	-1
  7059     0076  1D03               	skipz
  7060     0077  2870               	goto	u4545
  7061     0078                     l3184:
  7062     0078  30FE               	movlw	254
  7063     0079  057D               	andwf	___xxtofl@arg+3,w
  7064     007A  1D03               	btfss	3,2
  7065     007B  287D               	goto	u4551
  7066     007C  287E               	goto	u4550
  7067     007D                     u4551:
  7068     007D  286B               	goto	l3180
  7069     007E                     u4550:
  7070     007E  289A               	goto	l3192
  7071     007F                     l3186:
  7072     007F  3001               	movlw	1
  7073     0080  00FF               	movwf	btemp+1
  7074     0081  087F               	movf	btemp+1,w
  7075     0082  07F9               	addwf	___xxtofl@exp,f
  7076     0083                     l3188:
  7077     0083  3001               	movlw	1
  7078     0084  07FA               	addwf	___xxtofl@arg,f
  7079     0085  3000               	movlw	0
  7080     0086  1803               	skipnc
  7081     0087  3001               	movlw	1
  7082     0088  07FB               	addwf	___xxtofl@arg+1,f
  7083     0089  3000               	movlw	0
  7084     008A  1803               	skipnc
  7085     008B  3001               	movlw	1
  7086     008C  07FC               	addwf	___xxtofl@arg+2,f
  7087     008D  3000               	movlw	0
  7088     008E  1803               	skipnc
  7089     008F  3001               	movlw	1
  7090     0090  07FD               	addwf	___xxtofl@arg+3,f
  7091     0091                     l3190:
  7092     0091  3001               	movlw	1
  7093     0092                     u4565:
  7094     0092  1003               	clrc
  7095     0093  0CFD               	rrf	___xxtofl@arg+3,f
  7096     0094  0CFC               	rrf	___xxtofl@arg+2,f
  7097     0095  0CFB               	rrf	___xxtofl@arg+1,f
  7098     0096  0CFA               	rrf	___xxtofl@arg,f
  7099     0097  3EFF               	addlw	-1
  7100     0098  1D03               	skipz
  7101     0099  2892               	goto	u4565
  7102     009A                     l3192:
  7103     009A  30FF               	movlw	255
  7104     009B  057D               	andwf	___xxtofl@arg+3,w
  7105     009C  1D03               	btfss	3,2
  7106     009D  289F               	goto	u4571
  7107     009E  28A0               	goto	u4570
  7108     009F                     u4571:
  7109     009F  287F               	goto	l3186
  7110     00A0                     u4570:
  7111     00A0  28AC               	goto	l3196
  7112     00A1                     l3194:
  7113     00A1  3001               	movlw	1
  7114     00A2  02F9               	subwf	___xxtofl@exp,f
  7115     00A3  3001               	movlw	1
  7116     00A4  00F4               	movwf	??___xxtofl
  7117     00A5                     u4585:
  7118     00A5  1003               	clrc
  7119     00A6  0DFA               	rlf	___xxtofl@arg,f
  7120     00A7  0DFB               	rlf	___xxtofl@arg+1,f
  7121     00A8  0DFC               	rlf	___xxtofl@arg+2,f
  7122     00A9  0DFD               	rlf	___xxtofl@arg+3,f
  7123     00AA  0BF4               	decfsz	??___xxtofl,f
  7124     00AB  28A5               	goto	u4585
  7125     00AC                     l3196:
  7126     00AC  1BFC               	btfsc	___xxtofl@arg+2,7
  7127     00AD  28AF               	goto	u4591
  7128     00AE  28B0               	goto	u4590
  7129     00AF                     u4591:
  7130     00AF  28B6               	goto	l595
  7131     00B0                     u4590:
  7132     00B0                     l3198:
  7133     00B0  3002               	movlw	2
  7134     00B1  0279               	subwf	___xxtofl@exp,w
  7135     00B2  1803               	skipnc
  7136     00B3  28B5               	goto	u4601
  7137     00B4  28B6               	goto	u4600
  7138     00B5                     u4601:
  7139     00B5  28A1               	goto	l3194
  7140     00B6                     u4600:
  7141     00B6                     l595:
  7142     00B6  1879               	btfsc	___xxtofl@exp,0
  7143     00B7  28B9               	goto	u4611
  7144     00B8  28BA               	goto	u4610
  7145     00B9                     u4611:
  7146     00B9  28C2               	goto	l596
  7147     00BA                     u4610:
  7148     00BA                     l3200:
  7149     00BA  30FF               	movlw	255
  7150     00BB  05FA               	andwf	___xxtofl@arg,f
  7151     00BC  30FF               	movlw	255
  7152     00BD  05FB               	andwf	___xxtofl@arg+1,f
  7153     00BE  307F               	movlw	127
  7154     00BF  05FC               	andwf	___xxtofl@arg+2,f
  7155     00C0  30FF               	movlw	255
  7156     00C1  05FD               	andwf	___xxtofl@arg+3,f
  7157     00C2                     l596:
  7158     00C2  1003               	clrc
  7159     00C3  0CF9               	rrf	___xxtofl@exp,f
  7160     00C4                     l3202:
  7161     00C4  0879               	movf	___xxtofl@exp,w
  7162     00C5  00F4               	movwf	??___xxtofl
  7163     00C6  01F5               	clrf	??___xxtofl+1
  7164     00C7  01F6               	clrf	??___xxtofl+2
  7165     00C8  01F7               	clrf	??___xxtofl+3
  7166     00C9  3018               	movlw	24
  7167     00CA                     u4625:
  7168     00CA  1003               	clrc
  7169     00CB  0DF4               	rlf	??___xxtofl,f
  7170     00CC  0DF5               	rlf	??___xxtofl+1,f
  7171     00CD  0DF6               	rlf	??___xxtofl+2,f
  7172     00CE  0DF7               	rlf	??___xxtofl+3,f
  7173     00CF                     u4620:
  7174     00CF  3EFF               	addlw	-1
  7175     00D0  1D03               	skipz
  7176     00D1  28CA               	goto	u4625
  7177     00D2  0874               	movf	??___xxtofl,w
  7178     00D3  04FA               	iorwf	___xxtofl@arg,f
  7179     00D4  0875               	movf	??___xxtofl+1,w
  7180     00D5  04FB               	iorwf	___xxtofl@arg+1,f
  7181     00D6  0876               	movf	??___xxtofl+2,w
  7182     00D7  04FC               	iorwf	___xxtofl@arg+2,f
  7183     00D8  0877               	movf	??___xxtofl+3,w
  7184     00D9  04FD               	iorwf	___xxtofl@arg+3,f
  7185     00DA                     l3204:
  7186     00DA  0878               	movf	___xxtofl@sign,w
  7187     00DB  1903               	btfsc	3,2
  7188     00DC  28DE               	goto	u4631
  7189     00DD  28DF               	goto	u4630
  7190     00DE                     u4631:
  7191     00DE  28E4               	goto	l3210
  7192     00DF                     u4630:
  7193     00DF                     l3206:
  7194     00DF  1FF3               	btfss	___xxtofl@val+3,7
  7195     00E0  28E2               	goto	u4641
  7196     00E1  28E3               	goto	u4640
  7197     00E2                     u4641:
  7198     00E2  28E4               	goto	l3210
  7199     00E3                     u4640:
  7200     00E3                     l3208:
  7201     00E3  17FD               	bsf	___xxtofl@arg+3,7
  7202     00E4                     l3210:
  7203     00E4  087D               	movf	___xxtofl@arg+3,w
  7204     00E5  00F3               	movwf	?___xxtofl+3
  7205     00E6  087C               	movf	___xxtofl@arg+2,w
  7206     00E7  00F2               	movwf	?___xxtofl+2
  7207     00E8  087B               	movf	___xxtofl@arg+1,w
  7208     00E9  00F1               	movwf	?___xxtofl+1
  7209     00EA  087A               	movf	___xxtofl@arg,w
  7210     00EB  00F0               	movwf	?___xxtofl
  7211     00EC                     l584:
  7212     00EC  0008               	return
  7213     00ED                     __end_of___xxtofl:
  7214                           
  7215                           	psect	text26
  7216     10F0                     __ptext26:	
  7217 ;; *************** function _LCD_String *****************
  7218 ;; Defined at:
  7219 ;;		line 68 in file "main.c"
  7220 ;; Parameters:    Size  Location     Type
  7221 ;;  str             2    3[COMMON] PTR unsigned char 
  7222 ;;		 -> main@Temp(16), STR_1(9), 
  7223 ;; Auto vars:     Size  Location     Type
  7224 ;;  i               1    5[COMMON] unsigned char 
  7225 ;; Return value:  Size  Location     Type
  7226 ;;                  1    wreg      void 
  7227 ;; Registers used:
  7228 ;;		wreg, fsr0l, fsr0h, status,2, status,0, btemp+1, pclath, cstack
  7229 ;; Tracked objects:
  7230 ;;		On entry : 0/0
  7231 ;;		On exit  : 0/0
  7232 ;;		Unchanged: 0/0
  7233 ;; Data sizes:     COMMON   BANK0   BANK1   BANK3   BANK2
  7234 ;;      Params:         2       0       0       0       0
  7235 ;;      Locals:         1       0       0       0       0
  7236 ;;      Temps:          0       0       0       0       0
  7237 ;;      Totals:         3       0       0       0       0
  7238 ;;Total ram usage:        3 bytes
  7239 ;; Hardware stack levels used: 1
  7240 ;; Hardware stack levels required when called: 1
  7241 ;; This function calls:
  7242 ;;		_LCD_Data
  7243 ;; This function is called by:
  7244 ;;		_main
  7245 ;; This function uses a non-reentrant model
  7246 ;;
  7247                           
  7248     10F0                     _LCD_String:	
  7249                           ;psect for function _LCD_String
  7250                           
  7251     10F0                     l3128:	
  7252                           ;incstack = 0
  7253                           ; Regs used in _LCD_String: [wreg-fsr0h+status,2+status,0+btemp+1+pclath+cstack]
  7254                           
  7255                           
  7256                           ;main.c: 69: ;main.c: 70:   return ((ADRESH << 8) + ADRESL);
  7257     10F0  01F5               	clrf	LCD_String@i
  7258     10F1  2907               	goto	l3134
  7259     10F2                     l3130:
  7260                           
  7261                           ;main.c: 71: }
  7262     10F2  0875               	movf	LCD_String@i,w
  7263     10F3  0773               	addwf	LCD_String@str,w
  7264     10F4  0084               	movwf	4
  7265     10F5  0874               	movf	LCD_String@str+1,w
  7266     10F6  1803               	skipnc
  7267     10F7  0A74               	incf	LCD_String@str+1,w
  7268     10F8  00FF               	movwf	btemp+1
  7269     10F9  160A  118A  2000  160A  118A  	fcall	stringtab
  7270     10FE  160A  118A  2175  160A  118A  	fcall	_LCD_Data
  7271     1103                     l3132:
  7272                           
  7273                           ;main.c: 72: 
  7274     1103  3001               	movlw	1
  7275     1104  00FF               	movwf	btemp+1
  7276     1105  087F               	movf	btemp+1,w
  7277     1106  07F5               	addwf	LCD_String@i,f
  7278     1107                     l3134:
  7279     1107  0875               	movf	LCD_String@i,w
  7280     1108  0773               	addwf	LCD_String@str,w
  7281     1109  0084               	movwf	4
  7282     110A  0874               	movf	LCD_String@str+1,w
  7283     110B  1803               	skipnc
  7284     110C  0A74               	incf	LCD_String@str+1,w
  7285     110D  1283               	bcf	3,5	;RP0=0, select bank0
  7286     110E  1303               	bcf	3,6	;RP1=0, select bank0
  7287     110F  00FF               	movwf	btemp+1
  7288     1110  160A  118A  2000  160A  118A  	fcall	stringtab
  7289     1115  3A00               	xorlw	0
  7290     1116  1D03               	skipz
  7291     1117  2919               	goto	u4471
  7292     1118  291A               	goto	u4470
  7293     1119                     u4471:
  7294     1119  28F2               	goto	l3130
  7295     111A                     u4470:
  7296     111A                     l37:
  7297     111A  0008               	return
  7298     111B                     __end_of_LCD_String:
  7299                           
  7300                           	psect	text27
  7301     1175                     __ptext27:	
  7302 ;; *************** function _LCD_Data *****************
  7303 ;; Defined at:
  7304 ;;		line 45 in file "main.c"
  7305 ;; Parameters:    Size  Location     Type
  7306 ;;  data            1    wreg     unsigned char 
  7307 ;; Auto vars:     Size  Location     Type
  7308 ;;  data            1    2[COMMON] unsigned char 
  7309 ;; Return value:  Size  Location     Type
  7310 ;;                  1    wreg      void 
  7311 ;; Registers used:
  7312 ;;		wreg, status,2, status,0
  7313 ;; Tracked objects:
  7314 ;;		On entry : 0/0
  7315 ;;		On exit  : 0/0
  7316 ;;		Unchanged: 0/0
  7317 ;; Data sizes:     COMMON   BANK0   BANK1   BANK3   BANK2
  7318 ;;      Params:         0       0       0       0       0
  7319 ;;      Locals:         1       0       0       0       0
  7320 ;;      Temps:          2       0       0       0       0
  7321 ;;      Totals:         3       0       0       0       0
  7322 ;;Total ram usage:        3 bytes
  7323 ;; Hardware stack levels used: 1
  7324 ;; This function calls:
  7325 ;;		Nothing
  7326 ;; This function is called by:
  7327 ;;		_LCD_String
  7328 ;; This function uses a non-reentrant model
  7329 ;;
  7330                           
  7331     1175                     _LCD_Data:	
  7332                           ;psect for function _LCD_Data
  7333                           
  7334                           
  7335                           ;incstack = 0
  7336                           ; Regs used in _LCD_Data: [wreg+status,2+status,0]
  7337                           ;LCD_Data@data stored from wreg
  7338     1175  00F2               	movwf	LCD_Data@data
  7339     1176                     l3092:
  7340                           
  7341                           ;main.c: 46:     unsigned char i;
  7342     1176  0872               	movf	LCD_Data@data,w
  7343     1177  39F0               	andlw	240
  7344     1178  1283               	bcf	3,5	;RP0=0, select bank0
  7345     1179  1303               	bcf	3,6	;RP1=0, select bank0
  7346     117A  0086               	movwf	6	;volatile
  7347     117B                     l3094:
  7348                           
  7349                           ;main.c: 47:     for(i=0;str[i]!='\0';i++){
  7350     117B  1506               	bsf	6,2	;volatile
  7351     117C                     l3096:
  7352                           
  7353                           ;main.c: 48:         LCD_Data(str[i]);
  7354     117C  1086               	bcf	6,1	;volatile
  7355     117D                     l3098:
  7356                           
  7357                           ;main.c: 49:     }
  7358     117D  1406               	bsf	6,0	;volatile
  7359     117E                     l3100:
  7360                           
  7361                           ;main.c: 50: }
  7362     117E  3007               	movlw	7
  7363     117F  00F1               	movwf	??_LCD_Data+1
  7364     1180  307D               	movlw	125
  7365     1181  00F0               	movwf	??_LCD_Data
  7366     1182                     u4657:
  7367     1182  0BF0               	decfsz	??_LCD_Data,f
  7368     1183  2982               	goto	u4657
  7369     1184  0BF1               	decfsz	??_LCD_Data+1,f
  7370     1185  2982               	goto	u4657
  7371     1186                     l3102:
  7372                           
  7373                           ;main.c: 51: 
  7374     1186  1283               	bcf	3,5	;RP0=0, select bank0
  7375     1187  1303               	bcf	3,6	;RP1=0, select bank0
  7376     1188  1106               	bcf	6,2	;volatile
  7377     1189                     l3104:
  7378                           
  7379                           ;main.c: 52: void ADC_Init(){
  7380     1189  0872               	movf	LCD_Data@data,w
  7381     118A  00F0               	movwf	??_LCD_Data
  7382     118B  3003               	movlw	3
  7383     118C                     u4455:
  7384     118C  1003               	clrc
  7385     118D  0DF0               	rlf	??_LCD_Data,f
  7386     118E  3EFF               	addlw	-1
  7387     118F  1D03               	skipz
  7388     1190  298C               	goto	u4455
  7389     1191  1003               	clrc
  7390     1192  0D70               	rlf	??_LCD_Data,w
  7391     1193  39F0               	andlw	240
  7392     1194  0086               	movwf	6	;volatile
  7393     1195                     l3106:
  7394                           
  7395                           ;main.c: 53:     ADCON0 = 0x41;
  7396     1195  1506               	bsf	6,2	;volatile
  7397     1196                     l3108:
  7398                           
  7399                           ;main.c: 54:     ADCON1 = 0x80;
  7400     1196  1086               	bcf	6,1	;volatile
  7401     1197                     l3110:
  7402                           
  7403                           ;main.c: 55: }
  7404     1197  1406               	bsf	6,0	;volatile
  7405     1198                     l3112:
  7406                           
  7407                           ;main.c: 56: 
  7408     1198  3007               	movlw	7
  7409     1199  00F1               	movwf	??_LCD_Data+1
  7410     119A  307D               	movlw	125
  7411     119B  00F0               	movwf	??_LCD_Data
  7412     119C                     u4667:
  7413     119C  0BF0               	decfsz	??_LCD_Data,f
  7414     119D  299C               	goto	u4667
  7415     119E  0BF1               	decfsz	??_LCD_Data+1,f
  7416     119F  299C               	goto	u4667
  7417     11A0                     l3114:
  7418                           
  7419                           ;main.c: 57: uint16_t ADC_Read(uint8_t ANC)
  7420     11A0  1283               	bcf	3,5	;RP0=0, select bank0
  7421     11A1  1303               	bcf	3,6	;RP1=0, select bank0
  7422     11A2  1106               	bcf	6,2	;volatile
  7423     11A3                     l28:
  7424     11A3  0008               	return
  7425     11A4                     __end_of_LCD_Data:
  7426                           
  7427                           	psect	text28
  7428     1FC0                     __ptext28:	
  7429 ;; *************** function _LCD_Init *****************
  7430 ;; Defined at:
  7431 ;;		line 60 in file "main.c"
  7432 ;; Parameters:    Size  Location     Type
  7433 ;;		None
  7434 ;; Auto vars:     Size  Location     Type
  7435 ;;		None
  7436 ;; Return value:  Size  Location     Type
  7437 ;;                  1    wreg      void 
  7438 ;; Registers used:
  7439 ;;		wreg, status,2, status,0, pclath, cstack
  7440 ;; Tracked objects:
  7441 ;;		On entry : 0/0
  7442 ;;		On exit  : 0/0
  7443 ;;		Unchanged: 0/0
  7444 ;; Data sizes:     COMMON   BANK0   BANK1   BANK3   BANK2
  7445 ;;      Params:         0       0       0       0       0
  7446 ;;      Locals:         0       0       0       0       0
  7447 ;;      Temps:          0       0       0       0       0
  7448 ;;      Totals:         0       0       0       0       0
  7449 ;;Total ram usage:        0 bytes
  7450 ;; Hardware stack levels used: 1
  7451 ;; Hardware stack levels required when called: 1
  7452 ;; This function calls:
  7453 ;;		_LCD_Cmd
  7454 ;; This function is called by:
  7455 ;;		_main
  7456 ;; This function uses a non-reentrant model
  7457 ;;
  7458                           
  7459     1FC0                     _LCD_Init:	
  7460                           ;psect for function _LCD_Init
  7461                           
  7462     1FC0                     l3126:	
  7463                           ;incstack = 0
  7464                           ; Regs used in _LCD_Init: [wreg+status,2+status,0+pclath+cstack]
  7465                           
  7466                           
  7467                           ;main.c: 61:       return 0;
  7468     1FC0  3002               	movlw	2
  7469     1FC1  160A  118A  2146  160A  158A  	fcall	_LCD_Cmd
  7470                           
  7471                           ;main.c: 62:   }
  7472     1FC6  3028               	movlw	40
  7473     1FC7  160A  118A  2146  160A  158A  	fcall	_LCD_Cmd
  7474                           
  7475                           ;main.c: 63:   ADCON0 &= 0x11000101;
  7476     1FCC  300C               	movlw	12
  7477     1FCD  160A  118A  2146  160A  158A  	fcall	_LCD_Cmd
  7478                           
  7479                           ;main.c: 64:   ADCON0 |= ANC<<3;
  7480     1FD2  3006               	movlw	6
  7481     1FD3  160A  118A  2146  160A  158A  	fcall	_LCD_Cmd
  7482                           
  7483                           ;main.c: 65: 
  7484     1FD8  3001               	movlw	1
  7485     1FD9  160A  118A  2146  160A  158A  	fcall	_LCD_Cmd
  7486     1FDE                     l31:
  7487     1FDE  0008               	return
  7488     1FDF                     __end_of_LCD_Init:
  7489                           
  7490                           	psect	text29
  7491     1146                     __ptext29:	
  7492 ;; *************** function _LCD_Cmd *****************
  7493 ;; Defined at:
  7494 ;;		line 30 in file "main.c"
  7495 ;; Parameters:    Size  Location     Type
  7496 ;;  data            1    wreg     unsigned char 
  7497 ;; Auto vars:     Size  Location     Type
  7498 ;;  data            1    2[COMMON] unsigned char 
  7499 ;; Return value:  Size  Location     Type
  7500 ;;                  1    wreg      void 
  7501 ;; Registers used:
  7502 ;;		wreg, status,2, status,0
  7503 ;; Tracked objects:
  7504 ;;		On entry : 0/0
  7505 ;;		On exit  : 0/0
  7506 ;;		Unchanged: 0/0
  7507 ;; Data sizes:     COMMON   BANK0   BANK1   BANK3   BANK2
  7508 ;;      Params:         0       0       0       0       0
  7509 ;;      Locals:         1       0       0       0       0
  7510 ;;      Temps:          2       0       0       0       0
  7511 ;;      Totals:         3       0       0       0       0
  7512 ;;Total ram usage:        3 bytes
  7513 ;; Hardware stack levels used: 1
  7514 ;; This function calls:
  7515 ;;		Nothing
  7516 ;; This function is called by:
  7517 ;;		_LCD_Init
  7518 ;;		_main
  7519 ;; This function uses a non-reentrant model
  7520 ;;
  7521                           
  7522     1146                     _LCD_Cmd:	
  7523                           ;psect for function _LCD_Cmd
  7524                           
  7525                           
  7526                           ;incstack = 0
  7527                           ; Regs used in _LCD_Cmd: [wreg+status,2+status,0]
  7528                           ;LCD_Cmd@data stored from wreg
  7529     1146  00F2               	movwf	LCD_Cmd@data
  7530     1147                     l3068:
  7531                           
  7532                           ;main.c: 31:     PORTBbits.RB1 = 0;
  7533     1147  0872               	movf	LCD_Cmd@data,w
  7534     1148  39F0               	andlw	240
  7535     1149  1283               	bcf	3,5	;RP0=0, select bank0
  7536     114A  1303               	bcf	3,6	;RP1=0, select bank0
  7537     114B  0086               	movwf	6	;volatile
  7538     114C                     l3070:
  7539                           
  7540                           ;main.c: 32:     PORTBbits.RB0 = 1;
  7541     114C  1506               	bsf	6,2	;volatile
  7542     114D                     l3072:
  7543                           
  7544                           ;main.c: 33:     _delay((unsigned long)((5)*(4000000/4000.0)));
  7545     114D  1086               	bcf	6,1	;volatile
  7546     114E                     l3074:
  7547                           
  7548                           ;main.c: 34:     PORTBbits.RB2 = 0;
  7549     114E  1006               	bcf	6,0	;volatile
  7550     114F                     l3076:
  7551                           
  7552                           ;main.c: 35: }
  7553     114F  3007               	movlw	7
  7554     1150  00F1               	movwf	??_LCD_Cmd+1
  7555     1151  307D               	movlw	125
  7556     1152  00F0               	movwf	??_LCD_Cmd
  7557     1153                     u4677:
  7558     1153  0BF0               	decfsz	??_LCD_Cmd,f
  7559     1154  2953               	goto	u4677
  7560     1155  0BF1               	decfsz	??_LCD_Cmd+1,f
  7561     1156  2953               	goto	u4677
  7562     1157                     l3078:
  7563                           
  7564                           ;main.c: 36: 
  7565     1157  1283               	bcf	3,5	;RP0=0, select bank0
  7566     1158  1303               	bcf	3,6	;RP1=0, select bank0
  7567     1159  1106               	bcf	6,2	;volatile
  7568     115A                     l3080:
  7569                           
  7570                           ;main.c: 37: void LCD_Init(){
  7571     115A  0872               	movf	LCD_Cmd@data,w
  7572     115B  00F0               	movwf	??_LCD_Cmd
  7573     115C  3003               	movlw	3
  7574     115D                     u4445:
  7575     115D  1003               	clrc
  7576     115E  0DF0               	rlf	??_LCD_Cmd,f
  7577     115F  3EFF               	addlw	-1
  7578     1160  1D03               	skipz
  7579     1161  295D               	goto	u4445
  7580     1162  1003               	clrc
  7581     1163  0D70               	rlf	??_LCD_Cmd,w
  7582     1164  39F0               	andlw	240
  7583     1165  0086               	movwf	6	;volatile
  7584     1166                     l3082:
  7585                           
  7586                           ;main.c: 38:     LCD_Cmd(0x02);
  7587     1166  1506               	bsf	6,2	;volatile
  7588     1167                     l3084:
  7589                           
  7590                           ;main.c: 39:     LCD_Cmd(0x28);
  7591     1167  1086               	bcf	6,1	;volatile
  7592     1168                     l3086:
  7593                           
  7594                           ;main.c: 40:     LCD_Cmd(0x0C);
  7595     1168  1006               	bcf	6,0	;volatile
  7596     1169                     l3088:
  7597                           
  7598                           ;main.c: 41:     LCD_Cmd(0x06);
  7599     1169  3007               	movlw	7
  7600     116A  00F1               	movwf	??_LCD_Cmd+1
  7601     116B  307D               	movlw	125
  7602     116C  00F0               	movwf	??_LCD_Cmd
  7603     116D                     u4687:
  7604     116D  0BF0               	decfsz	??_LCD_Cmd,f
  7605     116E  296D               	goto	u4687
  7606     116F  0BF1               	decfsz	??_LCD_Cmd+1,f
  7607     1170  296D               	goto	u4687
  7608     1171                     l3090:
  7609                           
  7610                           ;main.c: 42:     LCD_Cmd(0x01);
  7611     1171  1283               	bcf	3,5	;RP0=0, select bank0
  7612     1172  1303               	bcf	3,6	;RP1=0, select bank0
  7613     1173  1106               	bcf	6,2	;volatile
  7614     1174                     l25:
  7615     1174  0008               	return
  7616     1175                     __end_of_LCD_Cmd:
  7617                           
  7618                           	psect	text30
  7619     0005                     __ptext30:	
  7620 ;; *************** function _ADC_Read *****************
  7621 ;; Defined at:
  7622 ;;		line 80 in file "main.c"
  7623 ;; Parameters:    Size  Location     Type
  7624 ;;  ANC             1    wreg     unsigned char 
  7625 ;; Auto vars:     Size  Location     Type
  7626 ;;  ANC             1    3[COMMON] unsigned char 
  7627 ;; Return value:  Size  Location     Type
  7628 ;;                  2    0[COMMON] unsigned short 
  7629 ;; Registers used:
  7630 ;;		wreg, status,2, status,0, btemp+1
  7631 ;; Tracked objects:
  7632 ;;		On entry : 0/0
  7633 ;;		On exit  : 0/0
  7634 ;;		Unchanged: 0/0
  7635 ;; Data sizes:     COMMON   BANK0   BANK1   BANK3   BANK2
  7636 ;;      Params:         2       0       0       0       0
  7637 ;;      Locals:         1       0       0       0       0
  7638 ;;      Temps:          1       0       0       0       0
  7639 ;;      Totals:         4       0       0       0       0
  7640 ;;Total ram usage:        4 bytes
  7641 ;; Hardware stack levels used: 1
  7642 ;; This function calls:
  7643 ;;		Nothing
  7644 ;; This function is called by:
  7645 ;;		_main
  7646 ;; This function uses a non-reentrant model
  7647 ;;
  7648                           
  7649     0005                     _ADC_Read:	
  7650                           ;psect for function _ADC_Read
  7651                           
  7652                           
  7653                           ;incstack = 0
  7654                           ; Regs used in _ADC_Read: [wreg+status,2+status,0+btemp+1]
  7655                           ;ADC_Read@ANC stored from wreg
  7656     0005  00F3               	movwf	ADC_Read@ANC
  7657     0006                     l3138:
  7658                           
  7659                           ;main.c: 80:     while(1){;main.c: 81:         ADC = ADC_Read(0);;main.c: 82:         Vo
      +                          l = ADC * 0.00488;
  7660     0006  3008               	movlw	8
  7661     0007  0273               	subwf	ADC_Read@ANC,w
  7662     0008  1C03               	skipc
  7663     0009  280B               	goto	u4481
  7664     000A  280C               	goto	u4480
  7665     000B                     u4481:
  7666     000B  280F               	goto	l3144
  7667     000C                     u4480:
  7668     000C                     l3140:
  7669                           
  7670                           ;main.c: 83:         Nhietdo = Vol / 0.01;;main.c: 84:         LCD_Cmd(0x80);
  7671     000C  01F0               	clrf	?_ADC_Read
  7672     000D  01F1               	clrf	?_ADC_Read+1
  7673     000E  2834               	goto	l44
  7674     000F                     l3144:
  7675                           
  7676                           ;main.c: 86:         sprintf(Temp, " %.2f", Nhietdo);
  7677     000F  3001               	movlw	1
  7678     0010  00FF               	movwf	btemp+1
  7679     0011  087F               	movf	btemp+1,w
  7680     0012  1283               	bcf	3,5	;RP0=0, select bank0
  7681     0013  1303               	bcf	3,6	;RP1=0, select bank0
  7682     0014  059F               	andwf	31,f	;volatile
  7683                           
  7684                           ;main.c: 87:         LCD_Cmd(0xC0);
  7685     0015  0873               	movf	ADC_Read@ANC,w	;volatile
  7686     0016  00F2               	movwf	??_ADC_Read
  7687     0017  3002               	movlw	2
  7688     0018                     u4495:
  7689     0018  1003               	clrc
  7690     0019  0DF2               	rlf	??_ADC_Read,f
  7691     001A  3EFF               	addlw	-1
  7692     001B  1D03               	skipz
  7693     001C  2818               	goto	u4495
  7694     001D  1003               	clrc
  7695     001E  0D72               	rlf	??_ADC_Read,w
  7696     001F  00FF               	movwf	btemp+1
  7697     0020  087F               	movf	btemp+1,w
  7698     0021  049F               	iorwf	31,f	;volatile
  7699     0022                     l3146:
  7700                           
  7701                           ;main.c: 89:     }
  7702     0022  3009               	movlw	9
  7703     0023  00F2               	movwf	??_ADC_Read
  7704     0024                     u4697:
  7705     0024  0BF2               	decfsz	??_ADC_Read,f
  7706     0025  2824               	goto	u4697
  7707     0026  2827               	nop2
  7708     0027                     l3148:
  7709                           
  7710                           ;main.c: 90:     return;
  7711     0027  1283               	bcf	3,5	;RP0=0, select bank0
  7712     0028  1303               	bcf	3,6	;RP1=0, select bank0
  7713     0029  151F               	bsf	31,2	;volatile
  7714     002A                     l45:	
  7715                           ;main.c: 91: }
  7716                           
  7717     002A  191F               	btfsc	31,2	;volatile
  7718     002B  282D               	goto	u4501
  7719     002C  282E               	goto	u4500
  7720     002D                     u4501:
  7721     002D  282A               	goto	l45
  7722     002E                     u4500:
  7723     002E                     l3150:
  7724     002E  081E               	movf	30,w	;volatile
  7725     002F  00F1               	movwf	?_ADC_Read+1
  7726     0030  1683               	bsf	3,5	;RP0=1, select bank1
  7727     0031  1303               	bcf	3,6	;RP1=0, select bank1
  7728     0032  081E               	movf	30,w	;volatile
  7729     0033  00F0               	movwf	?_ADC_Read
  7730     0034                     l44:
  7731     0034  0008               	return
  7732     0035                     __end_of_ADC_Read:
  7733                           
  7734                           	psect	text31
  7735     1027                     __ptext31:	
  7736 ;; *************** function _ADC_Init *****************
  7737 ;; Defined at:
  7738 ;;		line 75 in file "main.c"
  7739 ;; Parameters:    Size  Location     Type
  7740 ;;		None
  7741 ;; Auto vars:     Size  Location     Type
  7742 ;;		None
  7743 ;; Return value:  Size  Location     Type
  7744 ;;                  1    wreg      void 
  7745 ;; Registers used:
  7746 ;;		wreg
  7747 ;; Tracked objects:
  7748 ;;		On entry : 0/0
  7749 ;;		On exit  : 0/0
  7750 ;;		Unchanged: 0/0
  7751 ;; Data sizes:     COMMON   BANK0   BANK1   BANK3   BANK2
  7752 ;;      Params:         0       0       0       0       0
  7753 ;;      Locals:         0       0       0       0       0
  7754 ;;      Temps:          0       0       0       0       0
  7755 ;;      Totals:         0       0       0       0       0
  7756 ;;Total ram usage:        0 bytes
  7757 ;; Hardware stack levels used: 1
  7758 ;; This function calls:
  7759 ;;		Nothing
  7760 ;; This function is called by:
  7761 ;;		_main
  7762 ;; This function uses a non-reentrant model
  7763 ;;
  7764                           
  7765     1027                     _ADC_Init:	
  7766                           ;psect for function _ADC_Init
  7767                           
  7768     1027                     l3136:	
  7769                           ;incstack = 0
  7770                           ; Regs used in _ADC_Init: [wreg]
  7771                           
  7772                           
  7773                           ;main.c: 76:     ADC_Init();
  7774     1027  3041               	movlw	65
  7775     1028  1283               	bcf	3,5	;RP0=0, select bank0
  7776     1029  1303               	bcf	3,6	;RP1=0, select bank0
  7777     102A  009F               	movwf	31	;volatile
  7778                           
  7779                           ;main.c: 77:     float Nhietdo, Vol;
  7780     102B  3080               	movlw	128
  7781     102C  1683               	bsf	3,5	;RP0=1, select bank1
  7782     102D  1303               	bcf	3,6	;RP1=0, select bank1
  7783     102E  009F               	movwf	31	;volatile
  7784     102F                     l40:
  7785     102F  0008               	return
  7786     1030                     __end_of_ADC_Init:
  7787     007E                     btemp	set	126	;btemp
  7788     007E                     wtemp0	set	126
  7789                           
  7790                           	psect	config
  7791                           
  7792                           ;Config register CONFIG @ 0x2007
  7793                           ;	Oscillator Selection bits
  7794                           ;	FOSC = HS, HS oscillator
  7795                           ;	Watchdog Timer Enable bit
  7796                           ;	WDTE = ON, WDT enabled
  7797                           ;	Power-up Timer Enable bit
  7798                           ;	PWRTE = ON, PWRT enabled
  7799                           ;	Brown-out Reset Enable bit
  7800                           ;	BOREN = OFF, BOR disabled
  7801                           ;	Low-Voltage (Single-Supply) In-Circuit Serial Programming Enable bit
  7802                           ;	LVP = OFF, RB3 is digital I/O, HV on MCLR must be used for programming
  7803                           ;	Data EEPROM Memory Code Protection bit
  7804                           ;	CPD = OFF, Data EEPROM code protection off
  7805                           ;	Flash Program Memory Write Enable bits
  7806                           ;	WRT = OFF, Write protection off; all program memory may be written to by EECON control
  7807                           ;	In-Circuit Debugger Mode bit
  7808                           ;	DEBUG = 0x1, unprogrammed default
  7809                           ;	Flash Program Memory Code Protection bit
  7810                           ;	CP = OFF, Code protection off
  7811     2007                     	org	8199
  7812     2007  3F36               	dw	16182
  7813                           
  7814                           	psect	text6_split_1
  7815     00ED                     l2818:
  7816                           
  7817                           ;C:\Program Files\Microchip\xc8\v2.45\pic\sources\c99\common\doprnt.c: 657:     u.f = 1.
      +                          0;
  7818     00ED  303F               	movlw	63
  7819     00EE  1683               	bsf	3,5	;RP0=1, select bank1
  7820     00EF  1303               	bcf	3,6	;RP1=0, select bank1
  7821     00F0  00CC               	movwf	(efgtoa@u+3)^(0+128)
  7822     00F1  3080               	movlw	128
  7823     00F2  00CB               	movwf	(efgtoa@u+2)^(0+128)
  7824     00F3  3000               	movlw	0
  7825     00F4  00CA               	movwf	(efgtoa@u+1)^(0+128)
  7826     00F5  3000               	movlw	0
  7827     00F6  00C9               	movwf	efgtoa@u^(0+128)
  7828     00F7                     l2820:
  7829                           
  7830                           ;C:\Program Files\Microchip\xc8\v2.45\pic\sources\c99\common\doprnt.c: 658:     e = 0;
  7831     00F7  01B0               	clrf	efgtoa@e^(0+128)
  7832     00F8  01B1               	clrf	(efgtoa@e+1)^(0+128)
  7833     00F9                     l2822:
  7834                           
  7835                           ;C:\Program Files\Microchip\xc8\v2.45\pic\sources\c99\common\doprnt.c: 659:  if (!(g.f =
      +                          = 0.0)) {
  7836     00F9  0848               	movf	(efgtoa@g+3)^(0+128),w
  7837     00FA  00F3               	movwf	___fleq@ff1+3
  7838     00FB  0847               	movf	(efgtoa@g+2)^(0+128),w
  7839     00FC  00F2               	movwf	___fleq@ff1+2
  7840     00FD  0846               	movf	(efgtoa@g+1)^(0+128),w
  7841     00FE  00F1               	movwf	___fleq@ff1+1
  7842     00FF  0845               	movf	efgtoa@g^(0+128),w
  7843     0100  00F0               	movwf	___fleq@ff1
  7844     0101  3000               	movlw	0
  7845     0102  00F7               	movwf	___fleq@ff2+3
  7846     0103  3000               	movlw	0
  7847     0104  00F6               	movwf	___fleq@ff2+2
  7848     0105  3000               	movlw	0
  7849     0106  00F5               	movwf	___fleq@ff2+1
  7850     0107  3000               	movlw	0
  7851     0108  00F4               	movwf	___fleq@ff2
  7852     0109  160A  118A  21DE  120A  118A  	fcall	___fleq
  7853     010E  1803               	btfsc	3,0
  7854     010F  2911               	goto	u4111
  7855     0110  2912               	goto	u4110
  7856     0111                     u4111:
  7857     0111  2B23               	goto	l2848
  7858     0112                     u4110:
  7859     0112  2923               	goto	l2828
  7860     0113                     l2826:
  7861                           
  7862                           ;C:\Program Files\Microchip\xc8\v2.45\pic\sources\c99\common\doprnt.c: 661:    u = ou;
  7863     0113  1683               	bsf	3,5	;RP0=1, select bank1
  7864     0114  1303               	bcf	3,6	;RP1=0, select bank1
  7865     0115  0837               	movf	(efgtoa@ou+3)^(0+128),w
  7866     0116  00CC               	movwf	(efgtoa@u+3)^(0+128)
  7867     0117  0836               	movf	(efgtoa@ou+2)^(0+128),w
  7868     0118  00CB               	movwf	(efgtoa@u+2)^(0+128)
  7869     0119  0835               	movf	(efgtoa@ou+1)^(0+128),w
  7870     011A  00CA               	movwf	(efgtoa@u+1)^(0+128)
  7871     011B  0834               	movf	efgtoa@ou^(0+128),w
  7872     011C  00C9               	movwf	efgtoa@u^(0+128)
  7873                           
  7874                           ;C:\Program Files\Microchip\xc8\v2.45\pic\sources\c99\common\doprnt.c: 662:    ++e;
  7875     011D  3001               	movlw	1
  7876     011E  07B0               	addwf	efgtoa@e^(0+128),f
  7877     011F  1803               	skipnc
  7878     0120  0AB1               	incf	(efgtoa@e+1)^(0+128),f
  7879     0121  3000               	movlw	0
  7880     0122  07B1               	addwf	(efgtoa@e+1)^(0+128),f
  7881     0123                     l2828:
  7882                           
  7883                           ;C:\Program Files\Microchip\xc8\v2.45\pic\sources\c99\common\doprnt.c: 660:   while ((la
      +                          bs((g).u-((ou.f = u.f*10.0,ou)).u) <= 1) || g.f > ou.f) {
  7884     0123  3041               	movlw	65
  7885     0124  1283               	bcf	3,5	;RP0=0, select bank0
  7886     0125  1303               	bcf	3,6	;RP1=0, select bank0
  7887     0126  00A3               	movwf	___flmul@b+3
  7888     0127  3020               	movlw	32
  7889     0128  00A2               	movwf	___flmul@b+2
  7890     0129  3000               	movlw	0
  7891     012A  00A1               	movwf	___flmul@b+1
  7892     012B  3000               	movlw	0
  7893     012C  00A0               	movwf	___flmul@b
  7894     012D  1683               	bsf	3,5	;RP0=1, select bank1
  7895     012E  1303               	bcf	3,6	;RP1=0, select bank1
  7896     012F  084C               	movf	(efgtoa@u+3)^(0+128),w
  7897     0130  1283               	bcf	3,5	;RP0=0, select bank0
  7898     0131  1303               	bcf	3,6	;RP1=0, select bank0
  7899     0132  00A7               	movwf	___flmul@a+3
  7900     0133  1683               	bsf	3,5	;RP0=1, select bank1
  7901     0134  1303               	bcf	3,6	;RP1=0, select bank1
  7902     0135  084B               	movf	(efgtoa@u+2)^(0+128),w
  7903     0136  1283               	bcf	3,5	;RP0=0, select bank0
  7904     0137  1303               	bcf	3,6	;RP1=0, select bank0
  7905     0138  00A6               	movwf	___flmul@a+2
  7906     0139  1683               	bsf	3,5	;RP0=1, select bank1
  7907     013A  1303               	bcf	3,6	;RP1=0, select bank1
  7908     013B  084A               	movf	(efgtoa@u+1)^(0+128),w
  7909     013C  1283               	bcf	3,5	;RP0=0, select bank0
  7910     013D  1303               	bcf	3,6	;RP1=0, select bank0
  7911     013E  00A5               	movwf	___flmul@a+1
  7912     013F  1683               	bsf	3,5	;RP0=1, select bank1
  7913     0140  1303               	bcf	3,6	;RP1=0, select bank1
  7914     0141  0849               	movf	efgtoa@u^(0+128),w
  7915     0142  1283               	bcf	3,5	;RP0=0, select bank0
  7916     0143  1303               	bcf	3,6	;RP1=0, select bank0
  7917     0144  00A4               	movwf	___flmul@a
  7918     0145  120A  158A  24BB  120A  118A  	fcall	___flmul
  7919     014A  1283               	bcf	3,5	;RP0=0, select bank0
  7920     014B  1303               	bcf	3,6	;RP1=0, select bank0
  7921     014C  0823               	movf	?___flmul+3,w
  7922     014D  1683               	bsf	3,5	;RP0=1, select bank1
  7923     014E  1303               	bcf	3,6	;RP1=0, select bank1
  7924     014F  00B7               	movwf	(efgtoa@ou+3)^(0+128)
  7925     0150  1283               	bcf	3,5	;RP0=0, select bank0
  7926     0151  1303               	bcf	3,6	;RP1=0, select bank0
  7927     0152  0822               	movf	?___flmul+2,w
  7928     0153  1683               	bsf	3,5	;RP0=1, select bank1
  7929     0154  1303               	bcf	3,6	;RP1=0, select bank1
  7930     0155  00B6               	movwf	(efgtoa@ou+2)^(0+128)
  7931     0156  1283               	bcf	3,5	;RP0=0, select bank0
  7932     0157  1303               	bcf	3,6	;RP1=0, select bank0
  7933     0158  0821               	movf	?___flmul+1,w
  7934     0159  1683               	bsf	3,5	;RP0=1, select bank1
  7935     015A  1303               	bcf	3,6	;RP1=0, select bank1
  7936     015B  00B5               	movwf	(efgtoa@ou+1)^(0+128)
  7937     015C  1283               	bcf	3,5	;RP0=0, select bank0
  7938     015D  1303               	bcf	3,6	;RP1=0, select bank0
  7939     015E  0820               	movf	?___flmul,w
  7940     015F  1683               	bsf	3,5	;RP0=1, select bank1
  7941     0160  1303               	bcf	3,6	;RP1=0, select bank1
  7942     0161  00B4               	movwf	efgtoa@ou^(0+128)
  7943     0162                     l2830:
  7944     0162  0845               	movf	efgtoa@g^(0+128),w
  7945     0163  1283               	bcf	3,5	;RP0=0, select bank0
  7946     0164  1303               	bcf	3,6	;RP1=0, select bank0
  7947     0165  00CB               	movwf	??_efgtoa
  7948     0166  1683               	bsf	3,5	;RP0=1, select bank1
  7949     0167  1303               	bcf	3,6	;RP1=0, select bank1
  7950     0168  0846               	movf	(efgtoa@g+1)^(0+128),w
  7951     0169  1283               	bcf	3,5	;RP0=0, select bank0
  7952     016A  1303               	bcf	3,6	;RP1=0, select bank0
  7953     016B  00CC               	movwf	??_efgtoa+1
  7954     016C  1683               	bsf	3,5	;RP0=1, select bank1
  7955     016D  1303               	bcf	3,6	;RP1=0, select bank1
  7956     016E  0847               	movf	(efgtoa@g+2)^(0+128),w
  7957     016F  1283               	bcf	3,5	;RP0=0, select bank0
  7958     0170  1303               	bcf	3,6	;RP1=0, select bank0
  7959     0171  00CD               	movwf	??_efgtoa+2
  7960     0172  1683               	bsf	3,5	;RP0=1, select bank1
  7961     0173  1303               	bcf	3,6	;RP1=0, select bank1
  7962     0174  0848               	movf	(efgtoa@g+3)^(0+128),w
  7963     0175  1283               	bcf	3,5	;RP0=0, select bank0
  7964     0176  1303               	bcf	3,6	;RP1=0, select bank0
  7965     0177  00CE               	movwf	??_efgtoa+3
  7966     0178  1683               	bsf	3,5	;RP0=1, select bank1
  7967     0179  1303               	bcf	3,6	;RP1=0, select bank1
  7968     017A  0834               	movf	efgtoa@ou^(0+128),w
  7969     017B  1283               	bcf	3,5	;RP0=0, select bank0
  7970     017C  1303               	bcf	3,6	;RP1=0, select bank0
  7971     017D  02CB               	subwf	??_efgtoa,f
  7972     017E  1683               	bsf	3,5	;RP0=1, select bank1
  7973     017F  1303               	bcf	3,6	;RP1=0, select bank1
  7974     0180  0835               	movf	(efgtoa@ou+1)^(0+128),w
  7975     0181  1C03               	skipc
  7976     0182  0F35               	incfsz	(efgtoa@ou+1)^(0+128),w
  7977     0183  2985               	goto	u4121
  7978     0184  2988               	goto	u4122
  7979     0185                     u4121:
  7980     0185  1283               	bcf	3,5	;RP0=0, select bank0
  7981     0186  1303               	bcf	3,6	;RP1=0, select bank0
  7982     0187  02CC               	subwf	??_efgtoa+1,f
  7983     0188                     u4122:
  7984     0188  1683               	bsf	3,5	;RP0=1, select bank1
  7985     0189  1303               	bcf	3,6	;RP1=0, select bank1
  7986     018A  0836               	movf	(efgtoa@ou+2)^(0+128),w
  7987     018B  1C03               	skipc
  7988     018C  0F36               	incfsz	(efgtoa@ou+2)^(0+128),w
  7989     018D  298F               	goto	u4123
  7990     018E  2992               	goto	u4124
  7991     018F                     u4123:
  7992     018F  1283               	bcf	3,5	;RP0=0, select bank0
  7993     0190  1303               	bcf	3,6	;RP1=0, select bank0
  7994     0191  02CD               	subwf	??_efgtoa+2,f
  7995     0192                     u4124:
  7996     0192  1683               	bsf	3,5	;RP0=1, select bank1
  7997     0193  1303               	bcf	3,6	;RP1=0, select bank1
  7998     0194  0837               	movf	(efgtoa@ou+3)^(0+128),w
  7999     0195  1C03               	skipc
  8000     0196  0F37               	incfsz	(efgtoa@ou+3)^(0+128),w
  8001     0197  2999               	goto	u4125
  8002     0198  299C               	goto	u4126
  8003     0199                     u4125:
  8004     0199  1283               	bcf	3,5	;RP0=0, select bank0
  8005     019A  1303               	bcf	3,6	;RP1=0, select bank0
  8006     019B  02CE               	subwf	??_efgtoa+3,f
  8007     019C                     u4126:
  8008     019C  1683               	bsf	3,5	;RP0=1, select bank1
  8009     019D  1303               	bcf	3,6	;RP1=0, select bank1
  8010     019E  1283               	bcf	3,5	;RP0=0, select bank0
  8011     019F  1303               	bcf	3,6	;RP1=0, select bank0
  8012     01A0  084E               	movf	??_efgtoa+3,w
  8013     01A1  00F3               	movwf	labs@a+3
  8014     01A2  084D               	movf	??_efgtoa+2,w
  8015     01A3  00F2               	movwf	labs@a+2
  8016     01A4  084C               	movf	??_efgtoa+1,w
  8017     01A5  00F1               	movwf	labs@a+1
  8018     01A6  084B               	movf	??_efgtoa,w
  8019     01A7  00F0               	movwf	labs@a
  8020     01A8  160A  158A  2790  120A  118A  	fcall	_labs
  8021     01AD  1BF3               	btfsc	?_labs+3,7
  8022     01AE  29BF               	goto	u4131
  8023     01AF  0873               	movf	?_labs+3,w
  8024     01B0  1D03               	btfss	3,2
  8025     01B1  29C0               	goto	u4130
  8026     01B2  0872               	movf	?_labs+2,w
  8027     01B3  1D03               	btfss	3,2
  8028     01B4  29C0               	goto	u4130
  8029     01B5  0871               	movf	?_labs+1,w
  8030     01B6  1D03               	btfss	3,2
  8031     01B7  29C0               	goto	u4130
  8032     01B8  3002               	movlw	2
  8033     01B9  0270               	subwf	?_labs,w
  8034     01BA  1D03               	skipz
  8035     01BB  29BC               	goto	u4133
  8036     01BC                     u4133:
  8037     01BC  1C03               	btfss	3,0
  8038     01BD  29BF               	goto	u4131
  8039     01BE  29C0               	goto	u4130
  8040     01BF                     u4131:
  8041     01BF  2913               	goto	l2826
  8042     01C0                     u4130:
  8043     01C0                     l2832:
  8044     01C0  1683               	bsf	3,5	;RP0=1, select bank1
  8045     01C1  1303               	bcf	3,6	;RP1=0, select bank1
  8046     01C2  0837               	movf	(efgtoa@ou+3)^(0+128),w
  8047     01C3  1283               	bcf	3,5	;RP0=0, select bank0
  8048     01C4  1303               	bcf	3,6	;RP1=0, select bank0
  8049     01C5  00BD               	movwf	___flge@ff1+3
  8050     01C6  1683               	bsf	3,5	;RP0=1, select bank1
  8051     01C7  1303               	bcf	3,6	;RP1=0, select bank1
  8052     01C8  0836               	movf	(efgtoa@ou+2)^(0+128),w
  8053     01C9  1283               	bcf	3,5	;RP0=0, select bank0
  8054     01CA  1303               	bcf	3,6	;RP1=0, select bank0
  8055     01CB  00BC               	movwf	___flge@ff1+2
  8056     01CC  1683               	bsf	3,5	;RP0=1, select bank1
  8057     01CD  1303               	bcf	3,6	;RP1=0, select bank1
  8058     01CE  0835               	movf	(efgtoa@ou+1)^(0+128),w
  8059     01CF  1283               	bcf	3,5	;RP0=0, select bank0
  8060     01D0  1303               	bcf	3,6	;RP1=0, select bank0
  8061     01D1  00BB               	movwf	___flge@ff1+1
  8062     01D2  1683               	bsf	3,5	;RP0=1, select bank1
  8063     01D3  1303               	bcf	3,6	;RP1=0, select bank1
  8064     01D4  0834               	movf	efgtoa@ou^(0+128),w
  8065     01D5  1283               	bcf	3,5	;RP0=0, select bank0
  8066     01D6  1303               	bcf	3,6	;RP1=0, select bank0
  8067     01D7  00BA               	movwf	___flge@ff1
  8068     01D8  1683               	bsf	3,5	;RP0=1, select bank1
  8069     01D9  1303               	bcf	3,6	;RP1=0, select bank1
  8070     01DA  0848               	movf	(efgtoa@g+3)^(0+128),w
  8071     01DB  1283               	bcf	3,5	;RP0=0, select bank0
  8072     01DC  1303               	bcf	3,6	;RP1=0, select bank0
  8073     01DD  00C1               	movwf	___flge@ff2+3
  8074     01DE  1683               	bsf	3,5	;RP0=1, select bank1
  8075     01DF  1303               	bcf	3,6	;RP1=0, select bank1
  8076     01E0  0847               	movf	(efgtoa@g+2)^(0+128),w
  8077     01E1  1283               	bcf	3,5	;RP0=0, select bank0
  8078     01E2  1303               	bcf	3,6	;RP1=0, select bank0
  8079     01E3  00C0               	movwf	___flge@ff2+2
  8080     01E4  1683               	bsf	3,5	;RP0=1, select bank1
  8081     01E5  1303               	bcf	3,6	;RP1=0, select bank1
  8082     01E6  0846               	movf	(efgtoa@g+1)^(0+128),w
  8083     01E7  1283               	bcf	3,5	;RP0=0, select bank0
  8084     01E8  1303               	bcf	3,6	;RP1=0, select bank0
  8085     01E9  00BF               	movwf	___flge@ff2+1
  8086     01EA  1683               	bsf	3,5	;RP0=1, select bank1
  8087     01EB  1303               	bcf	3,6	;RP1=0, select bank1
  8088     01EC  0845               	movf	efgtoa@g^(0+128),w
  8089     01ED  1283               	bcf	3,5	;RP0=0, select bank0
  8090     01EE  1303               	bcf	3,6	;RP1=0, select bank0
  8091     01EF  00BE               	movwf	___flge@ff2
  8092     01F0  160A  118A  2367  120A  118A  	fcall	___flge
  8093     01F5  1C03               	btfss	3,0
  8094     01F6  29F8               	goto	u4141
  8095     01F7  29F9               	goto	u4140
  8096     01F8                     u4141:
  8097     01F8  2913               	goto	l2826
  8098     01F9                     u4140:
  8099     01F9                     l2834:
  8100                           
  8101                           ;C:\Program Files\Microchip\xc8\v2.45\pic\sources\c99\common\doprnt.c: 664:   if ((labs(
      +                          (g).u-(u).u) <= 1)) {
  8102     01F9  1683               	bsf	3,5	;RP0=1, select bank1
  8103     01FA  1303               	bcf	3,6	;RP1=0, select bank1
  8104     01FB  0845               	movf	efgtoa@g^(0+128),w
  8105     01FC  1283               	bcf	3,5	;RP0=0, select bank0
  8106     01FD  1303               	bcf	3,6	;RP1=0, select bank0
  8107     01FE  00CB               	movwf	??_efgtoa
  8108     01FF  1683               	bsf	3,5	;RP0=1, select bank1
  8109     0200  1303               	bcf	3,6	;RP1=0, select bank1
  8110     0201  0846               	movf	(efgtoa@g+1)^(0+128),w
  8111     0202  1283               	bcf	3,5	;RP0=0, select bank0
  8112     0203  1303               	bcf	3,6	;RP1=0, select bank0
  8113     0204  00CC               	movwf	??_efgtoa+1
  8114     0205  1683               	bsf	3,5	;RP0=1, select bank1
  8115     0206  1303               	bcf	3,6	;RP1=0, select bank1
  8116     0207  0847               	movf	(efgtoa@g+2)^(0+128),w
  8117     0208  1283               	bcf	3,5	;RP0=0, select bank0
  8118     0209  1303               	bcf	3,6	;RP1=0, select bank0
  8119     020A  00CD               	movwf	??_efgtoa+2
  8120     020B  1683               	bsf	3,5	;RP0=1, select bank1
  8121     020C  1303               	bcf	3,6	;RP1=0, select bank1
  8122     020D  0848               	movf	(efgtoa@g+3)^(0+128),w
  8123     020E  1283               	bcf	3,5	;RP0=0, select bank0
  8124     020F  1303               	bcf	3,6	;RP1=0, select bank0
  8125     0210  00CE               	movwf	??_efgtoa+3
  8126     0211  1683               	bsf	3,5	;RP0=1, select bank1
  8127     0212  1303               	bcf	3,6	;RP1=0, select bank1
  8128     0213  0849               	movf	efgtoa@u^(0+128),w
  8129     0214  1283               	bcf	3,5	;RP0=0, select bank0
  8130     0215  1303               	bcf	3,6	;RP1=0, select bank0
  8131     0216  02CB               	subwf	??_efgtoa,f
  8132     0217  1683               	bsf	3,5	;RP0=1, select bank1
  8133     0218  1303               	bcf	3,6	;RP1=0, select bank1
  8134     0219  084A               	movf	(efgtoa@u+1)^(0+128),w
  8135     021A  1C03               	skipc
  8136     021B  0F4A               	incfsz	(efgtoa@u+1)^(0+128),w
  8137     021C  2A1E               	goto	u4151
  8138     021D  2A21               	goto	u4152
  8139     021E                     u4151:
  8140     021E  1283               	bcf	3,5	;RP0=0, select bank0
  8141     021F  1303               	bcf	3,6	;RP1=0, select bank0
  8142     0220  02CC               	subwf	??_efgtoa+1,f
  8143     0221                     u4152:
  8144     0221  1683               	bsf	3,5	;RP0=1, select bank1
  8145     0222  1303               	bcf	3,6	;RP1=0, select bank1
  8146     0223  084B               	movf	(efgtoa@u+2)^(0+128),w
  8147     0224  1C03               	skipc
  8148     0225  0F4B               	incfsz	(efgtoa@u+2)^(0+128),w
  8149     0226  2A28               	goto	u4153
  8150     0227  2A2B               	goto	u4154
  8151     0228                     u4153:
  8152     0228  1283               	bcf	3,5	;RP0=0, select bank0
  8153     0229  1303               	bcf	3,6	;RP1=0, select bank0
  8154     022A  02CD               	subwf	??_efgtoa+2,f
  8155     022B                     u4154:
  8156     022B  1683               	bsf	3,5	;RP0=1, select bank1
  8157     022C  1303               	bcf	3,6	;RP1=0, select bank1
  8158     022D  084C               	movf	(efgtoa@u+3)^(0+128),w
  8159     022E  1C03               	skipc
  8160     022F  0F4C               	incfsz	(efgtoa@u+3)^(0+128),w
  8161     0230  2A32               	goto	u4155
  8162     0231  2A35               	goto	u4156
  8163     0232                     u4155:
  8164     0232  1283               	bcf	3,5	;RP0=0, select bank0
  8165     0233  1303               	bcf	3,6	;RP1=0, select bank0
  8166     0234  02CE               	subwf	??_efgtoa+3,f
  8167     0235                     u4156:
  8168     0235  1683               	bsf	3,5	;RP0=1, select bank1
  8169     0236  1303               	bcf	3,6	;RP1=0, select bank1
  8170     0237  1283               	bcf	3,5	;RP0=0, select bank0
  8171     0238  1303               	bcf	3,6	;RP1=0, select bank0
  8172     0239  084E               	movf	??_efgtoa+3,w
  8173     023A  00F3               	movwf	labs@a+3
  8174     023B  084D               	movf	??_efgtoa+2,w
  8175     023C  00F2               	movwf	labs@a+2
  8176     023D  084C               	movf	??_efgtoa+1,w
  8177     023E  00F1               	movwf	labs@a+1
  8178     023F  084B               	movf	??_efgtoa,w
  8179     0240  00F0               	movwf	labs@a
  8180     0241  160A  158A  2790  120A  118A  	fcall	_labs
  8181     0246  1BF3               	btfsc	?_labs+3,7
  8182     0247  2A59               	goto	u4160
  8183     0248  0873               	movf	?_labs+3,w
  8184     0249  1D03               	btfss	3,2
  8185     024A  2A58               	goto	u4161
  8186     024B  0872               	movf	?_labs+2,w
  8187     024C  1D03               	btfss	3,2
  8188     024D  2A58               	goto	u4161
  8189     024E  0871               	movf	?_labs+1,w
  8190     024F  1D03               	btfss	3,2
  8191     0250  2A58               	goto	u4161
  8192     0251  3002               	movlw	2
  8193     0252  0270               	subwf	?_labs,w
  8194     0253  1D03               	skipz
  8195     0254  2A55               	goto	u4163
  8196     0255                     u4163:
  8197     0255  1803               	btfsc	3,0
  8198     0256  2A58               	goto	u4161
  8199     0257  2A59               	goto	u4160
  8200     0258                     u4161:
  8201     0258  2AEA               	goto	l2846
  8202     0259                     u4160:
  8203     0259                     l2836:
  8204                           
  8205                           ;C:\Program Files\Microchip\xc8\v2.45\pic\sources\c99\common\doprnt.c: 665:    g = u;
  8206     0259  1683               	bsf	3,5	;RP0=1, select bank1
  8207     025A  1303               	bcf	3,6	;RP1=0, select bank1
  8208     025B  084C               	movf	(efgtoa@u+3)^(0+128),w
  8209     025C  00C8               	movwf	(efgtoa@g+3)^(0+128)
  8210     025D  084B               	movf	(efgtoa@u+2)^(0+128),w
  8211     025E  00C7               	movwf	(efgtoa@g+2)^(0+128)
  8212     025F  084A               	movf	(efgtoa@u+1)^(0+128),w
  8213     0260  00C6               	movwf	(efgtoa@g+1)^(0+128)
  8214     0261  0849               	movf	efgtoa@u^(0+128),w
  8215     0262  00C5               	movwf	efgtoa@g^(0+128)
  8216                           
  8217                           ;C:\Program Files\Microchip\xc8\v2.45\pic\sources\c99\common\doprnt.c: 666:   }
  8218     0263  2B23               	goto	l2848
  8219     0264                     l2838:
  8220                           
  8221                           ;C:\Program Files\Microchip\xc8\v2.45\pic\sources\c99\common\doprnt.c: 669:     u.f = u.
      +                          f/10.0;
  8222     0264  3041               	movlw	65
  8223     0265  00F3               	movwf	___fldiv@a+3
  8224     0266  3020               	movlw	32
  8225     0267  00F2               	movwf	___fldiv@a+2
  8226     0268  3000               	movlw	0
  8227     0269  00F1               	movwf	___fldiv@a+1
  8228     026A  3000               	movlw	0
  8229     026B  00F0               	movwf	___fldiv@a
  8230     026C  1683               	bsf	3,5	;RP0=1, select bank1
  8231     026D  1303               	bcf	3,6	;RP1=0, select bank1
  8232     026E  084C               	movf	(efgtoa@u+3)^(0+128),w
  8233     026F  00F7               	movwf	___fldiv@b+3
  8234     0270  084B               	movf	(efgtoa@u+2)^(0+128),w
  8235     0271  00F6               	movwf	___fldiv@b+2
  8236     0272  084A               	movf	(efgtoa@u+1)^(0+128),w
  8237     0273  00F5               	movwf	___fldiv@b+1
  8238     0274  0849               	movf	efgtoa@u^(0+128),w
  8239     0275  00F4               	movwf	___fldiv@b
  8240     0276  120A  158A  2082  120A  118A  	fcall	___fldiv
  8241     027B  0873               	movf	?___fldiv+3,w
  8242     027C  1683               	bsf	3,5	;RP0=1, select bank1
  8243     027D  1303               	bcf	3,6	;RP1=0, select bank1
  8244     027E  00CC               	movwf	(efgtoa@u+3)^(0+128)
  8245     027F  0872               	movf	?___fldiv+2,w
  8246     0280  00CB               	movwf	(efgtoa@u+2)^(0+128)
  8247     0281  0871               	movf	?___fldiv+1,w
  8248     0282  00CA               	movwf	(efgtoa@u+1)^(0+128)
  8249     0283  0870               	movf	?___fldiv,w
  8250     0284  00C9               	movwf	efgtoa@u^(0+128)
  8251     0285                     l2840:
  8252                           
  8253                           ;C:\Program Files\Microchip\xc8\v2.45\pic\sources\c99\common\doprnt.c: 670:     --e;
  8254     0285  30FF               	movlw	255
  8255     0286  07B0               	addwf	efgtoa@e^(0+128),f
  8256     0287  1803               	skipnc
  8257     0288  0AB1               	incf	(efgtoa@e+1)^(0+128),f
  8258     0289  30FF               	movlw	255
  8259     028A  07B1               	addwf	(efgtoa@e+1)^(0+128),f
  8260     028B                     l2842:
  8261                           
  8262                           ;C:\Program Files\Microchip\xc8\v2.45\pic\sources\c99\common\doprnt.c: 671:     if ((lab
      +                          s((g).u-(u).u) <= 1)) {
  8263     028B  0845               	movf	efgtoa@g^(0+128),w
  8264     028C  1283               	bcf	3,5	;RP0=0, select bank0
  8265     028D  1303               	bcf	3,6	;RP1=0, select bank0
  8266     028E  00CB               	movwf	??_efgtoa
  8267     028F  1683               	bsf	3,5	;RP0=1, select bank1
  8268     0290  1303               	bcf	3,6	;RP1=0, select bank1
  8269     0291  0846               	movf	(efgtoa@g+1)^(0+128),w
  8270     0292  1283               	bcf	3,5	;RP0=0, select bank0
  8271     0293  1303               	bcf	3,6	;RP1=0, select bank0
  8272     0294  00CC               	movwf	??_efgtoa+1
  8273     0295  1683               	bsf	3,5	;RP0=1, select bank1
  8274     0296  1303               	bcf	3,6	;RP1=0, select bank1
  8275     0297  0847               	movf	(efgtoa@g+2)^(0+128),w
  8276     0298  1283               	bcf	3,5	;RP0=0, select bank0
  8277     0299  1303               	bcf	3,6	;RP1=0, select bank0
  8278     029A  00CD               	movwf	??_efgtoa+2
  8279     029B  1683               	bsf	3,5	;RP0=1, select bank1
  8280     029C  1303               	bcf	3,6	;RP1=0, select bank1
  8281     029D  0848               	movf	(efgtoa@g+3)^(0+128),w
  8282     029E  1283               	bcf	3,5	;RP0=0, select bank0
  8283     029F  1303               	bcf	3,6	;RP1=0, select bank0
  8284     02A0  00CE               	movwf	??_efgtoa+3
  8285     02A1  1683               	bsf	3,5	;RP0=1, select bank1
  8286     02A2  1303               	bcf	3,6	;RP1=0, select bank1
  8287     02A3  0849               	movf	efgtoa@u^(0+128),w
  8288     02A4  1283               	bcf	3,5	;RP0=0, select bank0
  8289     02A5  1303               	bcf	3,6	;RP1=0, select bank0
  8290     02A6  02CB               	subwf	??_efgtoa,f
  8291     02A7  1683               	bsf	3,5	;RP0=1, select bank1
  8292     02A8  1303               	bcf	3,6	;RP1=0, select bank1
  8293     02A9  084A               	movf	(efgtoa@u+1)^(0+128),w
  8294     02AA  1C03               	skipc
  8295     02AB  0F4A               	incfsz	(efgtoa@u+1)^(0+128),w
  8296     02AC  2AAE               	goto	u4171
  8297     02AD  2AB1               	goto	u4172
  8298     02AE                     u4171:
  8299     02AE  1283               	bcf	3,5	;RP0=0, select bank0
  8300     02AF  1303               	bcf	3,6	;RP1=0, select bank0
  8301     02B0  02CC               	subwf	??_efgtoa+1,f
  8302     02B1                     u4172:
  8303     02B1  1683               	bsf	3,5	;RP0=1, select bank1
  8304     02B2  1303               	bcf	3,6	;RP1=0, select bank1
  8305     02B3  084B               	movf	(efgtoa@u+2)^(0+128),w
  8306     02B4  1C03               	skipc
  8307     02B5  0F4B               	incfsz	(efgtoa@u+2)^(0+128),w
  8308     02B6  2AB8               	goto	u4173
  8309     02B7  2ABB               	goto	u4174
  8310     02B8                     u4173:
  8311     02B8  1283               	bcf	3,5	;RP0=0, select bank0
  8312     02B9  1303               	bcf	3,6	;RP1=0, select bank0
  8313     02BA  02CD               	subwf	??_efgtoa+2,f
  8314     02BB                     u4174:
  8315     02BB  1683               	bsf	3,5	;RP0=1, select bank1
  8316     02BC  1303               	bcf	3,6	;RP1=0, select bank1
  8317     02BD  084C               	movf	(efgtoa@u+3)^(0+128),w
  8318     02BE  1C03               	skipc
  8319     02BF  0F4C               	incfsz	(efgtoa@u+3)^(0+128),w
  8320     02C0  2AC2               	goto	u4175
  8321     02C1  2AC5               	goto	u4176
  8322     02C2                     u4175:
  8323     02C2  1283               	bcf	3,5	;RP0=0, select bank0
  8324     02C3  1303               	bcf	3,6	;RP1=0, select bank0
  8325     02C4  02CE               	subwf	??_efgtoa+3,f
  8326     02C5                     u4176:
  8327     02C5  1683               	bsf	3,5	;RP0=1, select bank1
  8328     02C6  1303               	bcf	3,6	;RP1=0, select bank1
  8329     02C7  1283               	bcf	3,5	;RP0=0, select bank0
  8330     02C8  1303               	bcf	3,6	;RP1=0, select bank0
  8331     02C9  084E               	movf	??_efgtoa+3,w
  8332     02CA  00F3               	movwf	labs@a+3
  8333     02CB  084D               	movf	??_efgtoa+2,w
  8334     02CC  00F2               	movwf	labs@a+2
  8335     02CD  084C               	movf	??_efgtoa+1,w
  8336     02CE  00F1               	movwf	labs@a+1
  8337     02CF  084B               	movf	??_efgtoa,w
  8338     02D0  00F0               	movwf	labs@a
  8339     02D1  160A  158A  2790  120A  118A  	fcall	_labs
  8340     02D6  1BF3               	btfsc	?_labs+3,7
  8341     02D7  2AE9               	goto	u4180
  8342     02D8  0873               	movf	?_labs+3,w
  8343     02D9  1D03               	btfss	3,2
  8344     02DA  2AE8               	goto	u4181
  8345     02DB  0872               	movf	?_labs+2,w
  8346     02DC  1D03               	btfss	3,2
  8347     02DD  2AE8               	goto	u4181
  8348     02DE  0871               	movf	?_labs+1,w
  8349     02DF  1D03               	btfss	3,2
  8350     02E0  2AE8               	goto	u4181
  8351     02E1  3002               	movlw	2
  8352     02E2  0270               	subwf	?_labs,w
  8353     02E3  1D03               	skipz
  8354     02E4  2AE5               	goto	u4183
  8355     02E5                     u4183:
  8356     02E5  1803               	btfsc	3,0
  8357     02E6  2AE8               	goto	u4181
  8358     02E7  2AE9               	goto	u4180
  8359     02E8                     u4181:
  8360     02E8  2AEA               	goto	l2846
  8361     02E9                     u4180:
  8362     02E9  2A59               	goto	l2836
  8363     02EA                     l2846:
  8364                           
  8365                           ;C:\Program Files\Microchip\xc8\v2.45\pic\sources\c99\common\doprnt.c: 668:    while (g.
      +                          f < u.f) {
  8366     02EA  1683               	bsf	3,5	;RP0=1, select bank1
  8367     02EB  1303               	bcf	3,6	;RP1=0, select bank1
  8368     02EC  0848               	movf	(efgtoa@g+3)^(0+128),w
  8369     02ED  1283               	bcf	3,5	;RP0=0, select bank0
  8370     02EE  1303               	bcf	3,6	;RP1=0, select bank0
  8371     02EF  00BD               	movwf	___flge@ff1+3
  8372     02F0  1683               	bsf	3,5	;RP0=1, select bank1
  8373     02F1  1303               	bcf	3,6	;RP1=0, select bank1
  8374     02F2  0847               	movf	(efgtoa@g+2)^(0+128),w
  8375     02F3  1283               	bcf	3,5	;RP0=0, select bank0
  8376     02F4  1303               	bcf	3,6	;RP1=0, select bank0
  8377     02F5  00BC               	movwf	___flge@ff1+2
  8378     02F6  1683               	bsf	3,5	;RP0=1, select bank1
  8379     02F7  1303               	bcf	3,6	;RP1=0, select bank1
  8380     02F8  0846               	movf	(efgtoa@g+1)^(0+128),w
  8381     02F9  1283               	bcf	3,5	;RP0=0, select bank0
  8382     02FA  1303               	bcf	3,6	;RP1=0, select bank0
  8383     02FB  00BB               	movwf	___flge@ff1+1
  8384     02FC  1683               	bsf	3,5	;RP0=1, select bank1
  8385     02FD  1303               	bcf	3,6	;RP1=0, select bank1
  8386     02FE  0845               	movf	efgtoa@g^(0+128),w
  8387     02FF  1283               	bcf	3,5	;RP0=0, select bank0
  8388     0300  1303               	bcf	3,6	;RP1=0, select bank0
  8389     0301  00BA               	movwf	___flge@ff1
  8390     0302  1683               	bsf	3,5	;RP0=1, select bank1
  8391     0303  1303               	bcf	3,6	;RP1=0, select bank1
  8392     0304  084C               	movf	(efgtoa@u+3)^(0+128),w
  8393     0305  1283               	bcf	3,5	;RP0=0, select bank0
  8394     0306  1303               	bcf	3,6	;RP1=0, select bank0
  8395     0307  00C1               	movwf	___flge@ff2+3
  8396     0308  1683               	bsf	3,5	;RP0=1, select bank1
  8397     0309  1303               	bcf	3,6	;RP1=0, select bank1
  8398     030A  084B               	movf	(efgtoa@u+2)^(0+128),w
  8399     030B  1283               	bcf	3,5	;RP0=0, select bank0
  8400     030C  1303               	bcf	3,6	;RP1=0, select bank0
  8401     030D  00C0               	movwf	___flge@ff2+2
  8402     030E  1683               	bsf	3,5	;RP0=1, select bank1
  8403     030F  1303               	bcf	3,6	;RP1=0, select bank1
  8404     0310  084A               	movf	(efgtoa@u+1)^(0+128),w
  8405     0311  1283               	bcf	3,5	;RP0=0, select bank0
  8406     0312  1303               	bcf	3,6	;RP1=0, select bank0
  8407     0313  00BF               	movwf	___flge@ff2+1
  8408     0314  1683               	bsf	3,5	;RP0=1, select bank1
  8409     0315  1303               	bcf	3,6	;RP1=0, select bank1
  8410     0316  0849               	movf	efgtoa@u^(0+128),w
  8411     0317  1283               	bcf	3,5	;RP0=0, select bank0
  8412     0318  1303               	bcf	3,6	;RP1=0, select bank0
  8413     0319  00BE               	movwf	___flge@ff2
  8414     031A  160A  118A  2367  120A  118A  	fcall	___flge
  8415     031F  1C03               	btfss	3,0
  8416     0320  2B22               	goto	u4191
  8417     0321  2B23               	goto	u4190
  8418     0322                     u4191:
  8419     0322  2A64               	goto	l2838
  8420     0323                     u4190:
  8421     0323                     l2848:
  8422                           
  8423                           ;C:\Program Files\Microchip\xc8\v2.45\pic\sources\c99\common\doprnt.c: 683:  mode = c;
  8424     0323  1283               	bcf	3,5	;RP0=0, select bank0
  8425     0324  1303               	bcf	3,6	;RP1=0, select bank0
  8426     0325  084A               	movf	efgtoa@c,w
  8427     0326  1683               	bsf	3,5	;RP0=1, select bank1
  8428     0327  1303               	bcf	3,6	;RP1=0, select bank1
  8429     0328  00A9               	movwf	efgtoa@mode^(0+128)
  8430                           
  8431                           ;C:\Program Files\Microchip\xc8\v2.45\pic\sources\c99\common\doprnt.c: 685:     nmode = 
      +                          mode;
  8432     0329  0829               	movf	efgtoa@mode^(0+128),w
  8433     032A  00AA               	movwf	efgtoa@nmode^(0+128)
  8434     032B                     l2850:
  8435                           
  8436                           ;C:\Program Files\Microchip\xc8\v2.45\pic\sources\c99\common\doprnt.c: 695:  {;C:\Progra
      +                          m Files\Microchip\xc8\v2.45\pic\sources\c99\common\doprnt.c: 696:         p = (prec < 0)
      +                           ? 6 : prec;
  8437     032B  1283               	bcf	3,5	;RP0=0, select bank0
  8438     032C  1303               	bcf	3,6	;RP1=0, select bank0
  8439     032D  1BEB               	btfsc	_prec+1,7
  8440     032E  2B30               	goto	u4201
  8441     032F  2B31               	goto	u4200
  8442     0330                     u4201:
  8443     0330  2B3C               	goto	l2854
  8444     0331                     u4200:
  8445     0331                     l2852:
  8446     0331  086B               	movf	_prec+1,w
  8447     0332  1683               	bsf	3,5	;RP0=1, select bank1
  8448     0333  1303               	bcf	3,6	;RP1=0, select bank1
  8449     0334  00A3               	movwf	(efgtoa@p+1)^(0+128)
  8450     0335  1283               	bcf	3,5	;RP0=0, select bank0
  8451     0336  1303               	bcf	3,6	;RP1=0, select bank0
  8452     0337  086A               	movf	_prec,w
  8453     0338  1683               	bsf	3,5	;RP0=1, select bank1
  8454     0339  1303               	bcf	3,6	;RP1=0, select bank1
  8455     033A  00A2               	movwf	efgtoa@p^(0+128)
  8456     033B  2B42               	goto	l662
  8457     033C                     l2854:
  8458     033C  3006               	movlw	6
  8459     033D  1683               	bsf	3,5	;RP0=1, select bank1
  8460     033E  1303               	bcf	3,6	;RP1=0, select bank1
  8461     033F  00A2               	movwf	efgtoa@p^(0+128)
  8462     0340  3000               	movlw	0
  8463     0341  00A3               	movwf	(efgtoa@p^(0+128)+1)
  8464     0342                     l662:
  8465                           
  8466                           ;C:\Program Files\Microchip\xc8\v2.45\pic\sources\c99\common\doprnt.c: 697:     };C:\Pro
      +                          gram Files\Microchip\xc8\v2.45\pic\sources\c99\common\doprnt.c: 711:     m = p;
  8467     0342  0823               	movf	(efgtoa@p+1)^(0+128),w
  8468     0343  00AE               	movwf	(efgtoa@m+1)^(0+128)
  8469     0344  0822               	movf	efgtoa@p^(0+128),w
  8470     0345  00AD               	movwf	efgtoa@m^(0+128)
  8471                           
  8472                           ;C:\Program Files\Microchip\xc8\v2.45\pic\sources\c99\common\doprnt.c: 715:  {;C:\Progra
      +                          m Files\Microchip\xc8\v2.45\pic\sources\c99\common\doprnt.c: 716:         ++m;
  8473     0346  3001               	movlw	1
  8474     0347  07AD               	addwf	efgtoa@m^(0+128),f
  8475     0348  1803               	skipnc
  8476     0349  0AAE               	incf	(efgtoa@m+1)^(0+128),f
  8477     034A  3000               	movlw	0
  8478     034B  07AE               	addwf	(efgtoa@m+1)^(0+128),f
  8479     034C                     l2856:
  8480                           
  8481                           ;C:\Program Files\Microchip\xc8\v2.45\pic\sources\c99\common\doprnt.c: 717:     };C:\Pro
      +                          gram Files\Microchip\xc8\v2.45\pic\sources\c99\common\doprnt.c: 721:     if (nmode == 'f
      +                          ') {
  8482     034C  3066               	movlw	102
  8483     034D  062A               	xorwf	efgtoa@nmode^(0+128),w
  8484     034E  1D03               	btfss	3,2
  8485     034F  2B51               	goto	u4211
  8486     0350  2B52               	goto	u4210
  8487     0351                     u4211:
  8488     0351  2B6C               	goto	l2868
  8489     0352                     u4210:
  8490     0352                     l2858:
  8491                           
  8492                           ;C:\Program Files\Microchip\xc8\v2.45\pic\sources\c99\common\doprnt.c: 722:         if (
      +                          e < 0) {
  8493     0352  1FB1               	btfss	(efgtoa@e+1)^(0+128),7
  8494     0353  2B55               	goto	u4221
  8495     0354  2B56               	goto	u4220
  8496     0355                     u4221:
  8497     0355  2B60               	goto	l2864
  8498     0356                     u4220:
  8499     0356                     l2860:
  8500                           
  8501                           ;C:\Program Files\Microchip\xc8\v2.45\pic\sources\c99\common\doprnt.c: 723:             
      +                          u.f = 1.0;
  8502     0356  303F               	movlw	63
  8503     0357  00CC               	movwf	(efgtoa@u+3)^(0+128)
  8504     0358  3080               	movlw	128
  8505     0359  00CB               	movwf	(efgtoa@u+2)^(0+128)
  8506     035A  3000               	movlw	0
  8507     035B  00CA               	movwf	(efgtoa@u+1)^(0+128)
  8508     035C  3000               	movlw	0
  8509     035D  00C9               	movwf	efgtoa@u^(0+128)
  8510     035E                     l2862:
  8511                           
  8512                           ;C:\Program Files\Microchip\xc8\v2.45\pic\sources\c99\common\doprnt.c: 724:             
      +                          e = 0;
  8513     035E  01B0               	clrf	efgtoa@e^(0+128)
  8514     035F  01B1               	clrf	(efgtoa@e+1)^(0+128)
  8515     0360                     l2864:
  8516                           
  8517                           ;C:\Program Files\Microchip\xc8\v2.45\pic\sources\c99\common\doprnt.c: 726:         if (
      +                          !(mode == 'g')) {
  8518     0360  3067               	movlw	103
  8519     0361  0629               	xorwf	efgtoa@mode^(0+128),w
  8520     0362  1903               	btfsc	3,2
  8521     0363  2B65               	goto	u4231
  8522     0364  2B66               	goto	u4230
  8523     0365                     u4231:
  8524     0365  2B6C               	goto	l2868
  8525     0366                     u4230:
  8526     0366                     l2866:
  8527                           
  8528                           ;C:\Program Files\Microchip\xc8\v2.45\pic\sources\c99\common\doprnt.c: 727:             
      +                          m += e;
  8529     0366  0830               	movf	efgtoa@e^(0+128),w
  8530     0367  07AD               	addwf	efgtoa@m^(0+128),f
  8531     0368  1803               	skipnc
  8532     0369  0AAE               	incf	(efgtoa@m+1)^(0+128),f
  8533     036A  0831               	movf	(efgtoa@e+1)^(0+128),w
  8534     036B  07AE               	addwf	(efgtoa@m+1)^(0+128),f
  8535     036C                     l2868:
  8536                           
  8537                           ;C:\Program Files\Microchip\xc8\v2.45\pic\sources\c99\common\doprnt.c: 733:     i = 0;
  8538     036C  01B8               	clrf	efgtoa@i^(0+128)
  8539     036D  01B9               	clrf	(efgtoa@i+1)^(0+128)
  8540     036E                     l2870:
  8541                           
  8542                           ;C:\Program Files\Microchip\xc8\v2.45\pic\sources\c99\common\doprnt.c: 734:     h = g.f;
  8543     036E  0848               	movf	(efgtoa@g+3)^(0+128),w
  8544     036F  00BD               	movwf	(efgtoa@h+3)^(0+128)
  8545     0370  0847               	movf	(efgtoa@g+2)^(0+128),w
  8546     0371  00BC               	movwf	(efgtoa@h+2)^(0+128)
  8547     0372  0846               	movf	(efgtoa@g+1)^(0+128),w
  8548     0373  00BB               	movwf	(efgtoa@h+1)^(0+128)
  8549     0374  0845               	movf	efgtoa@g^(0+128),w
  8550     0375  00BA               	movwf	efgtoa@h^(0+128)
  8551     0376                     l2872:
  8552                           
  8553                           ;C:\Program Files\Microchip\xc8\v2.45\pic\sources\c99\common\doprnt.c: 735:     ou = u;
  8554     0376  084C               	movf	(efgtoa@u+3)^(0+128),w
  8555     0377  00B7               	movwf	(efgtoa@ou+3)^(0+128)
  8556     0378  084B               	movf	(efgtoa@u+2)^(0+128),w
  8557     0379  00B6               	movwf	(efgtoa@ou+2)^(0+128)
  8558     037A  084A               	movf	(efgtoa@u+1)^(0+128),w
  8559     037B  00B5               	movwf	(efgtoa@ou+1)^(0+128)
  8560     037C  0849               	movf	efgtoa@u^(0+128),w
  8561     037D  00B4               	movwf	efgtoa@ou^(0+128)
  8562                           
  8563                           ;C:\Program Files\Microchip\xc8\v2.45\pic\sources\c99\common\doprnt.c: 736:     while (i
      +                           < m) {
  8564     037E  2C67               	goto	l2878
  8565     037F                     l2874:
  8566                           
  8567                           ;C:\Program Files\Microchip\xc8\v2.45\pic\sources\c99\common\doprnt.c: 737:         l = 
      +                          floorf(h/u.f);
  8568     037F  1683               	bsf	3,5	;RP0=1, select bank1
  8569     0380  1303               	bcf	3,6	;RP1=0, select bank1
  8570     0381  084C               	movf	(efgtoa@u+3)^(0+128),w
  8571     0382  00F3               	movwf	___fldiv@a+3
  8572     0383  084B               	movf	(efgtoa@u+2)^(0+128),w
  8573     0384  00F2               	movwf	___fldiv@a+2
  8574     0385  084A               	movf	(efgtoa@u+1)^(0+128),w
  8575     0386  00F1               	movwf	___fldiv@a+1
  8576     0387  0849               	movf	efgtoa@u^(0+128),w
  8577     0388  00F0               	movwf	___fldiv@a
  8578     0389  083D               	movf	(efgtoa@h+3)^(0+128),w
  8579     038A  00F7               	movwf	___fldiv@b+3
  8580     038B  083C               	movf	(efgtoa@h+2)^(0+128),w
  8581     038C  00F6               	movwf	___fldiv@b+2
  8582     038D  083B               	movf	(efgtoa@h+1)^(0+128),w
  8583     038E  00F5               	movwf	___fldiv@b+1
  8584     038F  083A               	movf	efgtoa@h^(0+128),w
  8585     0390  00F4               	movwf	___fldiv@b
  8586     0391  120A  158A  2082  120A  118A  	fcall	___fldiv
  8587     0396  0873               	movf	?___fldiv+3,w
  8588     0397  1283               	bcf	3,5	;RP0=0, select bank0
  8589     0398  1303               	bcf	3,6	;RP1=0, select bank0
  8590     0399  00B0               	movwf	floorf@x+3
  8591     039A  0872               	movf	?___fldiv+2,w
  8592     039B  00AF               	movwf	floorf@x+2
  8593     039C  0871               	movf	?___fldiv+1,w
  8594     039D  00AE               	movwf	floorf@x+1
  8595     039E  0870               	movf	?___fldiv,w
  8596     039F  00AD               	movwf	floorf@x
  8597     03A0  160A  118A  24B9  120A  118A  	fcall	_floorf
  8598     03A5  1283               	bcf	3,5	;RP0=0, select bank0
  8599     03A6  1303               	bcf	3,6	;RP1=0, select bank0
  8600     03A7  0830               	movf	?_floorf+3,w
  8601     03A8  1683               	bsf	3,5	;RP0=1, select bank1
  8602     03A9  1303               	bcf	3,6	;RP1=0, select bank1
  8603     03AA  00C1               	movwf	(efgtoa@l+3)^(0+128)
  8604     03AB  1283               	bcf	3,5	;RP0=0, select bank0
  8605     03AC  1303               	bcf	3,6	;RP1=0, select bank0
  8606     03AD  082F               	movf	?_floorf+2,w
  8607     03AE  1683               	bsf	3,5	;RP0=1, select bank1
  8608     03AF  1303               	bcf	3,6	;RP1=0, select bank1
  8609     03B0  00C0               	movwf	(efgtoa@l+2)^(0+128)
  8610     03B1  1283               	bcf	3,5	;RP0=0, select bank0
  8611     03B2  1303               	bcf	3,6	;RP1=0, select bank0
  8612     03B3  082E               	movf	?_floorf+1,w
  8613     03B4  1683               	bsf	3,5	;RP0=1, select bank1
  8614     03B5  1303               	bcf	3,6	;RP1=0, select bank1
  8615     03B6  00BF               	movwf	(efgtoa@l+1)^(0+128)
  8616     03B7  1283               	bcf	3,5	;RP0=0, select bank0
  8617     03B8  1303               	bcf	3,6	;RP1=0, select bank0
  8618     03B9  082D               	movf	?_floorf,w
  8619     03BA  1683               	bsf	3,5	;RP0=1, select bank1
  8620     03BB  1303               	bcf	3,6	;RP1=0, select bank1
  8621     03BC  00BE               	movwf	efgtoa@l^(0+128)
  8622                           
  8623                           ;C:\Program Files\Microchip\xc8\v2.45\pic\sources\c99\common\doprnt.c: 738:         d = 
      +                          (int)l;
  8624     03BD  0841               	movf	(efgtoa@l+3)^(0+128),w
  8625     03BE  00F3               	movwf	___fltol@f1+3
  8626     03BF  0840               	movf	(efgtoa@l+2)^(0+128),w
  8627     03C0  00F2               	movwf	___fltol@f1+2
  8628     03C1  083F               	movf	(efgtoa@l+1)^(0+128),w
  8629     03C2  00F1               	movwf	___fltol@f1+1
  8630     03C3  083E               	movf	efgtoa@l^(0+128),w
  8631     03C4  00F0               	movwf	___fltol@f1
  8632     03C5  120A  158A  200C  120A  118A  	fcall	___fltol
  8633     03CA  0871               	movf	?___fltol+1,w
  8634     03CB  1683               	bsf	3,5	;RP0=1, select bank1
  8635     03CC  1303               	bcf	3,6	;RP1=0, select bank1
  8636     03CD  00AC               	movwf	(efgtoa@d+1)^(0+128)
  8637     03CE  0870               	movf	?___fltol,w
  8638     03CF  00AB               	movwf	efgtoa@d^(0+128)
  8639                           
  8640                           ;C:\Program Files\Microchip\xc8\v2.45\pic\sources\c99\common\doprnt.c: 739:         h -=
      +                           l*u.f;
  8641     03D0  084C               	movf	(efgtoa@u+3)^(0+128),w
  8642     03D1  1283               	bcf	3,5	;RP0=0, select bank0
  8643     03D2  1303               	bcf	3,6	;RP1=0, select bank0
  8644     03D3  00A7               	movwf	___flmul@a+3
  8645     03D4  1683               	bsf	3,5	;RP0=1, select bank1
  8646     03D5  1303               	bcf	3,6	;RP1=0, select bank1
  8647     03D6  084B               	movf	(efgtoa@u+2)^(0+128),w
  8648     03D7  1283               	bcf	3,5	;RP0=0, select bank0
  8649     03D8  1303               	bcf	3,6	;RP1=0, select bank0
  8650     03D9  00A6               	movwf	___flmul@a+2
  8651     03DA  1683               	bsf	3,5	;RP0=1, select bank1
  8652     03DB  1303               	bcf	3,6	;RP1=0, select bank1
  8653     03DC  084A               	movf	(efgtoa@u+1)^(0+128),w
  8654     03DD  1283               	bcf	3,5	;RP0=0, select bank0
  8655     03DE  1303               	bcf	3,6	;RP1=0, select bank0
  8656     03DF  00A5               	movwf	___flmul@a+1
  8657     03E0  1683               	bsf	3,5	;RP0=1, select bank1
  8658     03E1  1303               	bcf	3,6	;RP1=0, select bank1
  8659     03E2  0849               	movf	efgtoa@u^(0+128),w
  8660     03E3  1283               	bcf	3,5	;RP0=0, select bank0
  8661     03E4  1303               	bcf	3,6	;RP1=0, select bank0
  8662     03E5  00A4               	movwf	___flmul@a
  8663     03E6  1683               	bsf	3,5	;RP0=1, select bank1
  8664     03E7  1303               	bcf	3,6	;RP1=0, select bank1
  8665     03E8  0841               	movf	(efgtoa@l+3)^(0+128),w
  8666     03E9  1283               	bcf	3,5	;RP0=0, select bank0
  8667     03EA  1303               	bcf	3,6	;RP1=0, select bank0
  8668     03EB  00A3               	movwf	___flmul@b+3
  8669     03EC  1683               	bsf	3,5	;RP0=1, select bank1
  8670     03ED  1303               	bcf	3,6	;RP1=0, select bank1
  8671     03EE  0840               	movf	(efgtoa@l+2)^(0+128),w
  8672     03EF  1283               	bcf	3,5	;RP0=0, select bank0
  8673     03F0  1303               	bcf	3,6	;RP1=0, select bank0
  8674     03F1  00A2               	movwf	___flmul@b+2
  8675     03F2  1683               	bsf	3,5	;RP0=1, select bank1
  8676     03F3  1303               	bcf	3,6	;RP1=0, select bank1
  8677     03F4  083F               	movf	(efgtoa@l+1)^(0+128),w
  8678     03F5  1283               	bcf	3,5	;RP0=0, select bank0
  8679     03F6  1303               	bcf	3,6	;RP1=0, select bank0
  8680     03F7  00A1               	movwf	___flmul@b+1
  8681     03F8  1683               	bsf	3,5	;RP0=1, select bank1
  8682     03F9  1303               	bcf	3,6	;RP1=0, select bank1
  8683     03FA  083E               	movf	efgtoa@l^(0+128),w
  8684     03FB  1283               	bcf	3,5	;RP0=0, select bank0
  8685     03FC  1303               	bcf	3,6	;RP1=0, select bank0
  8686     03FD  00A0               	movwf	___flmul@b
  8687     03FE  120A  158A  24BB  120A  118A  	fcall	___flmul
  8688     0403  1283               	bcf	3,5	;RP0=0, select bank0
  8689     0404  1303               	bcf	3,6	;RP1=0, select bank0
  8690     0405  0823               	movf	?___flmul+3,w
  8691     0406  00BD               	movwf	___flsub@a+3
  8692     0407  0822               	movf	?___flmul+2,w
  8693     0408  00BC               	movwf	___flsub@a+2
  8694     0409  0821               	movf	?___flmul+1,w
  8695     040A  00BB               	movwf	___flsub@a+1
  8696     040B  0820               	movf	?___flmul,w
  8697     040C  00BA               	movwf	___flsub@a
  8698     040D  1683               	bsf	3,5	;RP0=1, select bank1
  8699     040E  1303               	bcf	3,6	;RP1=0, select bank1
  8700     040F  083D               	movf	(efgtoa@h+3)^(0+128),w
  8701     0410  1283               	bcf	3,5	;RP0=0, select bank0
  8702     0411  1303               	bcf	3,6	;RP1=0, select bank0
  8703     0412  00C1               	movwf	___flsub@b+3
  8704     0413  1683               	bsf	3,5	;RP0=1, select bank1
  8705     0414  1303               	bcf	3,6	;RP1=0, select bank1
  8706     0415  083C               	movf	(efgtoa@h+2)^(0+128),w
  8707     0416  1283               	bcf	3,5	;RP0=0, select bank0
  8708     0417  1303               	bcf	3,6	;RP1=0, select bank0
  8709     0418  00C0               	movwf	___flsub@b+2
  8710     0419  1683               	bsf	3,5	;RP0=1, select bank1
  8711     041A  1303               	bcf	3,6	;RP1=0, select bank1
  8712     041B  083B               	movf	(efgtoa@h+1)^(0+128),w
  8713     041C  1283               	bcf	3,5	;RP0=0, select bank0
  8714     041D  1303               	bcf	3,6	;RP1=0, select bank0
  8715     041E  00BF               	movwf	___flsub@b+1
  8716     041F  1683               	bsf	3,5	;RP0=1, select bank1
  8717     0420  1303               	bcf	3,6	;RP1=0, select bank1
  8718     0421  083A               	movf	efgtoa@h^(0+128),w
  8719     0422  1283               	bcf	3,5	;RP0=0, select bank0
  8720     0423  1303               	bcf	3,6	;RP1=0, select bank0
  8721     0424  00BE               	movwf	___flsub@b
  8722     0425  160A  118A  2030  120A  118A  	fcall	___flsub
  8723     042A  1283               	bcf	3,5	;RP0=0, select bank0
  8724     042B  1303               	bcf	3,6	;RP1=0, select bank0
  8725     042C  083D               	movf	?___flsub+3,w
  8726     042D  1683               	bsf	3,5	;RP0=1, select bank1
  8727     042E  1303               	bcf	3,6	;RP1=0, select bank1
  8728     042F  00BD               	movwf	(efgtoa@h+3)^(0+128)
  8729     0430  1283               	bcf	3,5	;RP0=0, select bank0
  8730     0431  1303               	bcf	3,6	;RP1=0, select bank0
  8731     0432  083C               	movf	?___flsub+2,w
  8732     0433  1683               	bsf	3,5	;RP0=1, select bank1
  8733     0434  1303               	bcf	3,6	;RP1=0, select bank1
  8734     0435  00BC               	movwf	(efgtoa@h+2)^(0+128)
  8735     0436  1283               	bcf	3,5	;RP0=0, select bank0
  8736     0437  1303               	bcf	3,6	;RP1=0, select bank0
  8737     0438  083B               	movf	?___flsub+1,w
  8738     0439  1683               	bsf	3,5	;RP0=1, select bank1
  8739     043A  1303               	bcf	3,6	;RP1=0, select bank1
  8740     043B  00BB               	movwf	(efgtoa@h+1)^(0+128)
  8741     043C  1283               	bcf	3,5	;RP0=0, select bank0
  8742     043D  1303               	bcf	3,6	;RP1=0, select bank0
  8743     043E  083A               	movf	?___flsub,w
  8744     043F  1683               	bsf	3,5	;RP0=1, select bank1
  8745     0440  1303               	bcf	3,6	;RP1=0, select bank1
  8746     0441  00BA               	movwf	efgtoa@h^(0+128)
  8747                           
  8748                           ;C:\Program Files\Microchip\xc8\v2.45\pic\sources\c99\common\doprnt.c: 740:         u.f 
      +                          = u.f/10.0;
  8749     0442  3041               	movlw	65
  8750     0443  00F3               	movwf	___fldiv@a+3
  8751     0444  3020               	movlw	32
  8752     0445  00F2               	movwf	___fldiv@a+2
  8753     0446  3000               	movlw	0
  8754     0447  00F1               	movwf	___fldiv@a+1
  8755     0448  3000               	movlw	0
  8756     0449  00F0               	movwf	___fldiv@a
  8757     044A  084C               	movf	(efgtoa@u+3)^(0+128),w
  8758     044B  00F7               	movwf	___fldiv@b+3
  8759     044C  084B               	movf	(efgtoa@u+2)^(0+128),w
  8760     044D  00F6               	movwf	___fldiv@b+2
  8761     044E  084A               	movf	(efgtoa@u+1)^(0+128),w
  8762     044F  00F5               	movwf	___fldiv@b+1
  8763     0450  0849               	movf	efgtoa@u^(0+128),w
  8764     0451  00F4               	movwf	___fldiv@b
  8765     0452  120A  158A  2082  120A  118A  	fcall	___fldiv
  8766     0457  0873               	movf	?___fldiv+3,w
  8767     0458  1683               	bsf	3,5	;RP0=1, select bank1
  8768     0459  1303               	bcf	3,6	;RP1=0, select bank1
  8769     045A  00CC               	movwf	(efgtoa@u+3)^(0+128)
  8770     045B  0872               	movf	?___fldiv+2,w
  8771     045C  00CB               	movwf	(efgtoa@u+2)^(0+128)
  8772     045D  0871               	movf	?___fldiv+1,w
  8773     045E  00CA               	movwf	(efgtoa@u+1)^(0+128)
  8774     045F  0870               	movf	?___fldiv,w
  8775     0460  00C9               	movwf	efgtoa@u^(0+128)
  8776     0461                     l2876:
  8777                           
  8778                           ;C:\Program Files\Microchip\xc8\v2.45\pic\sources\c99\common\doprnt.c: 741:         ++i;
  8779     0461  3001               	movlw	1
  8780     0462  07B8               	addwf	efgtoa@i^(0+128),f
  8781     0463  1803               	skipnc
  8782     0464  0AB9               	incf	(efgtoa@i+1)^(0+128),f
  8783     0465  3000               	movlw	0
  8784     0466  07B9               	addwf	(efgtoa@i+1)^(0+128),f
  8785     0467                     l2878:
  8786                           
  8787                           ;C:\Program Files\Microchip\xc8\v2.45\pic\sources\c99\common\doprnt.c: 736:     while (i
      +                           < m) {
  8788     0467  0839               	movf	(efgtoa@i+1)^(0+128),w
  8789     0468  3A80               	xorlw	128
  8790     0469  1283               	bcf	3,5	;RP0=0, select bank0
  8791     046A  1303               	bcf	3,6	;RP1=0, select bank0
  8792     046B  00CB               	movwf	??_efgtoa
  8793     046C  1683               	bsf	3,5	;RP0=1, select bank1
  8794     046D  1303               	bcf	3,6	;RP1=0, select bank1
  8795     046E  082E               	movf	(efgtoa@m+1)^(0+128),w
  8796     046F  3A80               	xorlw	128
  8797     0470  1283               	bcf	3,5	;RP0=0, select bank0
  8798     0471  1303               	bcf	3,6	;RP1=0, select bank0
  8799     0472  024B               	subwf	??_efgtoa,w
  8800     0473  1D03               	skipz
  8801     0474  2C79               	goto	u4245
  8802     0475  1683               	bsf	3,5	;RP0=1, select bank1
  8803     0476  1303               	bcf	3,6	;RP1=0, select bank1
  8804     0477  082D               	movf	efgtoa@m^(0+128),w
  8805     0478  0238               	subwf	efgtoa@i^(0+128),w
  8806     0479                     u4245:
  8807     0479  1C03               	skipc
  8808     047A  2C7C               	goto	u4241
  8809     047B  2C7D               	goto	u4240
  8810     047C                     u4241:
  8811     047C  2B7F               	goto	l2874
  8812     047D                     u4240:
  8813     047D                     l2880:
  8814                           
  8815                           ;C:\Program Files\Microchip\xc8\v2.45\pic\sources\c99\common\doprnt.c: 745:     l = u.f*
      +                          5.0;
  8816     047D  3040               	movlw	64
  8817     047E  1283               	bcf	3,5	;RP0=0, select bank0
  8818     047F  1303               	bcf	3,6	;RP1=0, select bank0
  8819     0480  00A3               	movwf	___flmul@b+3
  8820     0481  30A0               	movlw	160
  8821     0482  00A2               	movwf	___flmul@b+2
  8822     0483  3000               	movlw	0
  8823     0484  00A1               	movwf	___flmul@b+1
  8824     0485  3000               	movlw	0
  8825     0486  00A0               	movwf	___flmul@b
  8826     0487  1683               	bsf	3,5	;RP0=1, select bank1
  8827     0488  1303               	bcf	3,6	;RP1=0, select bank1
  8828     0489  084C               	movf	(efgtoa@u+3)^(0+128),w
  8829     048A  1283               	bcf	3,5	;RP0=0, select bank0
  8830     048B  1303               	bcf	3,6	;RP1=0, select bank0
  8831     048C  00A7               	movwf	___flmul@a+3
  8832     048D  1683               	bsf	3,5	;RP0=1, select bank1
  8833     048E  1303               	bcf	3,6	;RP1=0, select bank1
  8834     048F  084B               	movf	(efgtoa@u+2)^(0+128),w
  8835     0490  1283               	bcf	3,5	;RP0=0, select bank0
  8836     0491  1303               	bcf	3,6	;RP1=0, select bank0
  8837     0492  00A6               	movwf	___flmul@a+2
  8838     0493  1683               	bsf	3,5	;RP0=1, select bank1
  8839     0494  1303               	bcf	3,6	;RP1=0, select bank1
  8840     0495  084A               	movf	(efgtoa@u+1)^(0+128),w
  8841     0496  1283               	bcf	3,5	;RP0=0, select bank0
  8842     0497  1303               	bcf	3,6	;RP1=0, select bank0
  8843     0498  00A5               	movwf	___flmul@a+1
  8844     0499  1683               	bsf	3,5	;RP0=1, select bank1
  8845     049A  1303               	bcf	3,6	;RP1=0, select bank1
  8846     049B  0849               	movf	efgtoa@u^(0+128),w
  8847     049C  1283               	bcf	3,5	;RP0=0, select bank0
  8848     049D  1303               	bcf	3,6	;RP1=0, select bank0
  8849     049E  00A4               	movwf	___flmul@a
  8850     049F  120A  158A  24BB  120A  118A  	fcall	___flmul
  8851     04A4  1283               	bcf	3,5	;RP0=0, select bank0
  8852     04A5  1303               	bcf	3,6	;RP1=0, select bank0
  8853     04A6  0823               	movf	?___flmul+3,w
  8854     04A7  1683               	bsf	3,5	;RP0=1, select bank1
  8855     04A8  1303               	bcf	3,6	;RP1=0, select bank1
  8856     04A9  00C1               	movwf	(efgtoa@l+3)^(0+128)
  8857     04AA  1283               	bcf	3,5	;RP0=0, select bank0
  8858     04AB  1303               	bcf	3,6	;RP1=0, select bank0
  8859     04AC  0822               	movf	?___flmul+2,w
  8860     04AD  1683               	bsf	3,5	;RP0=1, select bank1
  8861     04AE  1303               	bcf	3,6	;RP1=0, select bank1
  8862     04AF  00C0               	movwf	(efgtoa@l+2)^(0+128)
  8863     04B0  1283               	bcf	3,5	;RP0=0, select bank0
  8864     04B1  1303               	bcf	3,6	;RP1=0, select bank0
  8865     04B2  0821               	movf	?___flmul+1,w
  8866     04B3  1683               	bsf	3,5	;RP0=1, select bank1
  8867     04B4  1303               	bcf	3,6	;RP1=0, select bank1
  8868     04B5  00BF               	movwf	(efgtoa@l+1)^(0+128)
  8869     04B6  1283               	bcf	3,5	;RP0=0, select bank0
  8870     04B7  1303               	bcf	3,6	;RP1=0, select bank0
  8871     04B8  0820               	movf	?___flmul,w
  8872     04B9  1683               	bsf	3,5	;RP0=1, select bank1
  8873     04BA  1303               	bcf	3,6	;RP1=0, select bank1
  8874     04BB  00BE               	movwf	efgtoa@l^(0+128)
  8875     04BC                     l2882:
  8876                           
  8877                           ;C:\Program Files\Microchip\xc8\v2.45\pic\sources\c99\common\doprnt.c: 746:     if (h < 
      +                          l) {
  8878     04BC  083D               	movf	(efgtoa@h+3)^(0+128),w
  8879     04BD  1283               	bcf	3,5	;RP0=0, select bank0
  8880     04BE  1303               	bcf	3,6	;RP1=0, select bank0
  8881     04BF  00BD               	movwf	___flge@ff1+3
  8882     04C0  1683               	bsf	3,5	;RP0=1, select bank1
  8883     04C1  1303               	bcf	3,6	;RP1=0, select bank1
  8884     04C2  083C               	movf	(efgtoa@h+2)^(0+128),w
  8885     04C3  1283               	bcf	3,5	;RP0=0, select bank0
  8886     04C4  1303               	bcf	3,6	;RP1=0, select bank0
  8887     04C5  00BC               	movwf	___flge@ff1+2
  8888     04C6  1683               	bsf	3,5	;RP0=1, select bank1
  8889     04C7  1303               	bcf	3,6	;RP1=0, select bank1
  8890     04C8  083B               	movf	(efgtoa@h+1)^(0+128),w
  8891     04C9  1283               	bcf	3,5	;RP0=0, select bank0
  8892     04CA  1303               	bcf	3,6	;RP1=0, select bank0
  8893     04CB  00BB               	movwf	___flge@ff1+1
  8894     04CC  1683               	bsf	3,5	;RP0=1, select bank1
  8895     04CD  1303               	bcf	3,6	;RP1=0, select bank1
  8896     04CE  083A               	movf	efgtoa@h^(0+128),w
  8897     04CF  1283               	bcf	3,5	;RP0=0, select bank0
  8898     04D0  1303               	bcf	3,6	;RP1=0, select bank0
  8899     04D1  00BA               	movwf	___flge@ff1
  8900     04D2  1683               	bsf	3,5	;RP0=1, select bank1
  8901     04D3  1303               	bcf	3,6	;RP1=0, select bank1
  8902     04D4  0841               	movf	(efgtoa@l+3)^(0+128),w
  8903     04D5  1283               	bcf	3,5	;RP0=0, select bank0
  8904     04D6  1303               	bcf	3,6	;RP1=0, select bank0
  8905     04D7  00C1               	movwf	___flge@ff2+3
  8906     04D8  1683               	bsf	3,5	;RP0=1, select bank1
  8907     04D9  1303               	bcf	3,6	;RP1=0, select bank1
  8908     04DA  0840               	movf	(efgtoa@l+2)^(0+128),w
  8909     04DB  1283               	bcf	3,5	;RP0=0, select bank0
  8910     04DC  1303               	bcf	3,6	;RP1=0, select bank0
  8911     04DD  00C0               	movwf	___flge@ff2+2
  8912     04DE  1683               	bsf	3,5	;RP0=1, select bank1
  8913     04DF  1303               	bcf	3,6	;RP1=0, select bank1
  8914     04E0  083F               	movf	(efgtoa@l+1)^(0+128),w
  8915     04E1  1283               	bcf	3,5	;RP0=0, select bank0
  8916     04E2  1303               	bcf	3,6	;RP1=0, select bank0
  8917     04E3  00BF               	movwf	___flge@ff2+1
  8918     04E4  1683               	bsf	3,5	;RP0=1, select bank1
  8919     04E5  1303               	bcf	3,6	;RP1=0, select bank1
  8920     04E6  083E               	movf	efgtoa@l^(0+128),w
  8921     04E7  1283               	bcf	3,5	;RP0=0, select bank0
  8922     04E8  1303               	bcf	3,6	;RP1=0, select bank0
  8923     04E9  00BE               	movwf	___flge@ff2
  8924     04EA  160A  118A  2367  120A  118A  	fcall	___flge
  8925     04EF  1803               	btfsc	3,0
  8926     04F0  2CF2               	goto	u4251
  8927     04F1  2CF3               	goto	u4250
  8928     04F2                     u4251:
  8929     04F2  2CFE               	goto	l2886
  8930     04F3                     u4250:
  8931     04F3                     l2884:
  8932                           
  8933                           ;C:\Program Files\Microchip\xc8\v2.45\pic\sources\c99\common\doprnt.c: 747:         l = 
      +                          0.0;
  8934     04F3  3000               	movlw	0
  8935     04F4  1683               	bsf	3,5	;RP0=1, select bank1
  8936     04F5  1303               	bcf	3,6	;RP1=0, select bank1
  8937     04F6  00C1               	movwf	(efgtoa@l+3)^(0+128)
  8938     04F7  3000               	movlw	0
  8939     04F8  00C0               	movwf	(efgtoa@l+2)^(0+128)
  8940     04F9  3000               	movlw	0
  8941     04FA  00BF               	movwf	(efgtoa@l+1)^(0+128)
  8942     04FB  3000               	movlw	0
  8943     04FC  00BE               	movwf	efgtoa@l^(0+128)
  8944                           
  8945                           ;C:\Program Files\Microchip\xc8\v2.45\pic\sources\c99\common\doprnt.c: 748:     } else {
  8946     04FD  2D27               	goto	l2892
  8947     04FE                     l2886:
  8948                           
  8949                           ;C:\Program Files\Microchip\xc8\v2.45\pic\sources\c99\common\doprnt.c: 750:         if (
      +                          (h == l) && !(d % 2)) {
  8950     04FE  1683               	bsf	3,5	;RP0=1, select bank1
  8951     04FF  1303               	bcf	3,6	;RP1=0, select bank1
  8952     0500  083D               	movf	(efgtoa@h+3)^(0+128),w
  8953     0501  00F3               	movwf	___fleq@ff1+3
  8954     0502  083C               	movf	(efgtoa@h+2)^(0+128),w
  8955     0503  00F2               	movwf	___fleq@ff1+2
  8956     0504  083B               	movf	(efgtoa@h+1)^(0+128),w
  8957     0505  00F1               	movwf	___fleq@ff1+1
  8958     0506  083A               	movf	efgtoa@h^(0+128),w
  8959     0507  00F0               	movwf	___fleq@ff1
  8960     0508  0841               	movf	(efgtoa@l+3)^(0+128),w
  8961     0509  00F7               	movwf	___fleq@ff2+3
  8962     050A  0840               	movf	(efgtoa@l+2)^(0+128),w
  8963     050B  00F6               	movwf	___fleq@ff2+2
  8964     050C  083F               	movf	(efgtoa@l+1)^(0+128),w
  8965     050D  00F5               	movwf	___fleq@ff2+1
  8966     050E  083E               	movf	efgtoa@l^(0+128),w
  8967     050F  00F4               	movwf	___fleq@ff2
  8968     0510  160A  118A  21DE  120A  118A  	fcall	___fleq
  8969     0515  1C03               	btfss	3,0
  8970     0516  2D18               	goto	u4261
  8971     0517  2D19               	goto	u4260
  8972     0518                     u4261:
  8973     0518  2D27               	goto	l2892
  8974     0519                     u4260:
  8975     0519                     l2888:
  8976     0519  1683               	bsf	3,5	;RP0=1, select bank1
  8977     051A  1303               	bcf	3,6	;RP1=0, select bank1
  8978     051B  182B               	btfsc	efgtoa@d^(0+128),0
  8979     051C  2D1E               	goto	u4271
  8980     051D  2D1F               	goto	u4270
  8981     051E                     u4271:
  8982     051E  2D27               	goto	l2892
  8983     051F                     u4270:
  8984     051F                     l2890:
  8985                           
  8986                           ;C:\Program Files\Microchip\xc8\v2.45\pic\sources\c99\common\doprnt.c: 751:             
      +                          l = 0.0;
  8987     051F  3000               	movlw	0
  8988     0520  00C1               	movwf	(efgtoa@l+3)^(0+128)
  8989     0521  3000               	movlw	0
  8990     0522  00C0               	movwf	(efgtoa@l+2)^(0+128)
  8991     0523  3000               	movlw	0
  8992     0524  00BF               	movwf	(efgtoa@l+1)^(0+128)
  8993     0525  3000               	movlw	0
  8994     0526  00BE               	movwf	efgtoa@l^(0+128)
  8995     0527                     l2892:
  8996                           
  8997                           ;C:\Program Files\Microchip\xc8\v2.45\pic\sources\c99\common\doprnt.c: 756:     h = g.f 
      +                          + l;
  8998     0527  1683               	bsf	3,5	;RP0=1, select bank1
  8999     0528  1303               	bcf	3,6	;RP1=0, select bank1
  9000     0529  0841               	movf	(efgtoa@l+3)^(0+128),w
  9001     052A  00F3               	movwf	___fladd@b+3
  9002     052B  0840               	movf	(efgtoa@l+2)^(0+128),w
  9003     052C  00F2               	movwf	___fladd@b+2
  9004     052D  083F               	movf	(efgtoa@l+1)^(0+128),w
  9005     052E  00F1               	movwf	___fladd@b+1
  9006     052F  083E               	movf	efgtoa@l^(0+128),w
  9007     0530  00F0               	movwf	___fladd@b
  9008     0531  0848               	movf	(efgtoa@g+3)^(0+128),w
  9009     0532  00F7               	movwf	___fladd@a+3
  9010     0533  0847               	movf	(efgtoa@g+2)^(0+128),w
  9011     0534  00F6               	movwf	___fladd@a+2
  9012     0535  0846               	movf	(efgtoa@g+1)^(0+128),w
  9013     0536  00F5               	movwf	___fladd@a+1
  9014     0537  0845               	movf	efgtoa@g^(0+128),w
  9015     0538  00F4               	movwf	___fladd@a
  9016     0539  120A  158A  2257  120A  118A  	fcall	___fladd
  9017     053E  0873               	movf	?___fladd+3,w
  9018     053F  1683               	bsf	3,5	;RP0=1, select bank1
  9019     0540  1303               	bcf	3,6	;RP1=0, select bank1
  9020     0541  00BD               	movwf	(efgtoa@h+3)^(0+128)
  9021     0542  0872               	movf	?___fladd+2,w
  9022     0543  00BC               	movwf	(efgtoa@h+2)^(0+128)
  9023     0544  0871               	movf	?___fladd+1,w
  9024     0545  00BB               	movwf	(efgtoa@h+1)^(0+128)
  9025     0546  0870               	movf	?___fladd,w
  9026     0547  00BA               	movwf	efgtoa@h^(0+128)
  9027     0548                     l2894:
  9028                           
  9029                           ;C:\Program Files\Microchip\xc8\v2.45\pic\sources\c99\common\doprnt.c: 758:  if (h >= (o
      +                          u.f*10.0)) {
  9030     0548  083D               	movf	(efgtoa@h+3)^(0+128),w
  9031     0549  1283               	bcf	3,5	;RP0=0, select bank0
  9032     054A  1303               	bcf	3,6	;RP1=0, select bank0
  9033     054B  00BD               	movwf	___flge@ff1+3
  9034     054C  1683               	bsf	3,5	;RP0=1, select bank1
  9035     054D  1303               	bcf	3,6	;RP1=0, select bank1
  9036     054E  083C               	movf	(efgtoa@h+2)^(0+128),w
  9037     054F  1283               	bcf	3,5	;RP0=0, select bank0
  9038     0550  1303               	bcf	3,6	;RP1=0, select bank0
  9039     0551  00BC               	movwf	___flge@ff1+2
  9040     0552  1683               	bsf	3,5	;RP0=1, select bank1
  9041     0553  1303               	bcf	3,6	;RP1=0, select bank1
  9042     0554  083B               	movf	(efgtoa@h+1)^(0+128),w
  9043     0555  1283               	bcf	3,5	;RP0=0, select bank0
  9044     0556  1303               	bcf	3,6	;RP1=0, select bank0
  9045     0557  00BB               	movwf	___flge@ff1+1
  9046     0558  1683               	bsf	3,5	;RP0=1, select bank1
  9047     0559  1303               	bcf	3,6	;RP1=0, select bank1
  9048     055A  083A               	movf	efgtoa@h^(0+128),w
  9049     055B  1283               	bcf	3,5	;RP0=0, select bank0
  9050     055C  1303               	bcf	3,6	;RP1=0, select bank0
  9051     055D  00BA               	movwf	___flge@ff1
  9052     055E  3041               	movlw	65
  9053     055F  00A3               	movwf	___flmul@b+3
  9054     0560  3020               	movlw	32
  9055     0561  00A2               	movwf	___flmul@b+2
  9056     0562  3000               	movlw	0
  9057     0563  00A1               	movwf	___flmul@b+1
  9058     0564  3000               	movlw	0
  9059     0565  00A0               	movwf	___flmul@b
  9060     0566  1683               	bsf	3,5	;RP0=1, select bank1
  9061     0567  1303               	bcf	3,6	;RP1=0, select bank1
  9062     0568  0837               	movf	(efgtoa@ou+3)^(0+128),w
  9063     0569  1283               	bcf	3,5	;RP0=0, select bank0
  9064     056A  1303               	bcf	3,6	;RP1=0, select bank0
  9065     056B  00A7               	movwf	___flmul@a+3
  9066     056C  1683               	bsf	3,5	;RP0=1, select bank1
  9067     056D  1303               	bcf	3,6	;RP1=0, select bank1
  9068     056E  0836               	movf	(efgtoa@ou+2)^(0+128),w
  9069     056F  1283               	bcf	3,5	;RP0=0, select bank0
  9070     0570  1303               	bcf	3,6	;RP1=0, select bank0
  9071     0571  00A6               	movwf	___flmul@a+2
  9072     0572  1683               	bsf	3,5	;RP0=1, select bank1
  9073     0573  1303               	bcf	3,6	;RP1=0, select bank1
  9074     0574  0835               	movf	(efgtoa@ou+1)^(0+128),w
  9075     0575  1283               	bcf	3,5	;RP0=0, select bank0
  9076     0576  1303               	bcf	3,6	;RP1=0, select bank0
  9077     0577  00A5               	movwf	___flmul@a+1
  9078     0578  1683               	bsf	3,5	;RP0=1, select bank1
  9079     0579  1303               	bcf	3,6	;RP1=0, select bank1
  9080     057A  0834               	movf	efgtoa@ou^(0+128),w
  9081     057B  1283               	bcf	3,5	;RP0=0, select bank0
  9082     057C  1303               	bcf	3,6	;RP1=0, select bank0
  9083     057D  00A4               	movwf	___flmul@a
  9084     057E  120A  158A  24BB  120A  118A  	fcall	___flmul
  9085     0583  1283               	bcf	3,5	;RP0=0, select bank0
  9086     0584  1303               	bcf	3,6	;RP1=0, select bank0
  9087     0585  0823               	movf	?___flmul+3,w
  9088     0586  00C1               	movwf	___flge@ff2+3
  9089     0587  0822               	movf	?___flmul+2,w
  9090     0588  00C0               	movwf	___flge@ff2+2
  9091     0589  0821               	movf	?___flmul+1,w
  9092     058A  00BF               	movwf	___flge@ff2+1
  9093     058B  0820               	movf	?___flmul,w
  9094     058C  00BE               	movwf	___flge@ff2
  9095     058D  160A  118A  2367  120A  118A  	fcall	___flge
  9096     0592  1C03               	btfss	3,0
  9097     0593  2D95               	goto	u4281
  9098     0594  2D96               	goto	u4280
  9099     0595                     u4281:
  9100     0595  2DE9               	goto	l672
  9101     0596                     u4280:
  9102     0596                     l2896:
  9103                           
  9104                           ;C:\Program Files\Microchip\xc8\v2.45\pic\sources\c99\common\doprnt.c: 759:   e++;
  9105     0596  3001               	movlw	1
  9106     0597  1683               	bsf	3,5	;RP0=1, select bank1
  9107     0598  1303               	bcf	3,6	;RP1=0, select bank1
  9108     0599  07B0               	addwf	efgtoa@e^(0+128),f
  9109     059A  1803               	skipnc
  9110     059B  0AB1               	incf	(efgtoa@e+1)^(0+128),f
  9111     059C  3000               	movlw	0
  9112     059D  07B1               	addwf	(efgtoa@e+1)^(0+128),f
  9113     059E                     l2898:
  9114                           
  9115                           ;C:\Program Files\Microchip\xc8\v2.45\pic\sources\c99\common\doprnt.c: 760:   ou.f *= 10
      +                          .0;
  9116     059E  3041               	movlw	65
  9117     059F  1283               	bcf	3,5	;RP0=0, select bank0
  9118     05A0  1303               	bcf	3,6	;RP1=0, select bank0
  9119     05A1  00A3               	movwf	___flmul@b+3
  9120     05A2  3020               	movlw	32
  9121     05A3  00A2               	movwf	___flmul@b+2
  9122     05A4  3000               	movlw	0
  9123     05A5  00A1               	movwf	___flmul@b+1
  9124     05A6  3000               	movlw	0
  9125     05A7  00A0               	movwf	___flmul@b
  9126     05A8  1683               	bsf	3,5	;RP0=1, select bank1
  9127     05A9  1303               	bcf	3,6	;RP1=0, select bank1
  9128     05AA  0837               	movf	(efgtoa@ou+3)^(0+128),w
  9129     05AB  1283               	bcf	3,5	;RP0=0, select bank0
  9130     05AC  1303               	bcf	3,6	;RP1=0, select bank0
  9131     05AD  00A7               	movwf	___flmul@a+3
  9132     05AE  1683               	bsf	3,5	;RP0=1, select bank1
  9133     05AF  1303               	bcf	3,6	;RP1=0, select bank1
  9134     05B0  0836               	movf	(efgtoa@ou+2)^(0+128),w
  9135     05B1  1283               	bcf	3,5	;RP0=0, select bank0
  9136     05B2  1303               	bcf	3,6	;RP1=0, select bank0
  9137     05B3  00A6               	movwf	___flmul@a+2
  9138     05B4  1683               	bsf	3,5	;RP0=1, select bank1
  9139     05B5  1303               	bcf	3,6	;RP1=0, select bank1
  9140     05B6  0835               	movf	(efgtoa@ou+1)^(0+128),w
  9141     05B7  1283               	bcf	3,5	;RP0=0, select bank0
  9142     05B8  1303               	bcf	3,6	;RP1=0, select bank0
  9143     05B9  00A5               	movwf	___flmul@a+1
  9144     05BA  1683               	bsf	3,5	;RP0=1, select bank1
  9145     05BB  1303               	bcf	3,6	;RP1=0, select bank1
  9146     05BC  0834               	movf	efgtoa@ou^(0+128),w
  9147     05BD  1283               	bcf	3,5	;RP0=0, select bank0
  9148     05BE  1303               	bcf	3,6	;RP1=0, select bank0
  9149     05BF  00A4               	movwf	___flmul@a
  9150     05C0  120A  158A  24BB  120A  118A  	fcall	___flmul
  9151     05C5  1283               	bcf	3,5	;RP0=0, select bank0
  9152     05C6  1303               	bcf	3,6	;RP1=0, select bank0
  9153     05C7  0823               	movf	?___flmul+3,w
  9154     05C8  1683               	bsf	3,5	;RP0=1, select bank1
  9155     05C9  1303               	bcf	3,6	;RP1=0, select bank1
  9156     05CA  00B7               	movwf	(efgtoa@ou+3)^(0+128)
  9157     05CB  1283               	bcf	3,5	;RP0=0, select bank0
  9158     05CC  1303               	bcf	3,6	;RP1=0, select bank0
  9159     05CD  0822               	movf	?___flmul+2,w
  9160     05CE  1683               	bsf	3,5	;RP0=1, select bank1
  9161     05CF  1303               	bcf	3,6	;RP1=0, select bank1
  9162     05D0  00B6               	movwf	(efgtoa@ou+2)^(0+128)
  9163     05D1  1283               	bcf	3,5	;RP0=0, select bank0
  9164     05D2  1303               	bcf	3,6	;RP1=0, select bank0
  9165     05D3  0821               	movf	?___flmul+1,w
  9166     05D4  1683               	bsf	3,5	;RP0=1, select bank1
  9167     05D5  1303               	bcf	3,6	;RP1=0, select bank1
  9168     05D6  00B5               	movwf	(efgtoa@ou+1)^(0+128)
  9169     05D7  1283               	bcf	3,5	;RP0=0, select bank0
  9170     05D8  1303               	bcf	3,6	;RP1=0, select bank0
  9171     05D9  0820               	movf	?___flmul,w
  9172     05DA  1683               	bsf	3,5	;RP0=1, select bank1
  9173     05DB  1303               	bcf	3,6	;RP1=0, select bank1
  9174     05DC  00B4               	movwf	efgtoa@ou^(0+128)
  9175     05DD                     l2900:
  9176                           
  9177                           ;C:\Program Files\Microchip\xc8\v2.45\pic\sources\c99\common\doprnt.c: 762:   if (nmode 
      +                          == 'f') {
  9178     05DD  3066               	movlw	102
  9179     05DE  062A               	xorwf	efgtoa@nmode^(0+128),w
  9180     05DF  1D03               	btfss	3,2
  9181     05E0  2DE2               	goto	u4291
  9182     05E1  2DE3               	goto	u4290
  9183     05E2                     u4291:
  9184     05E2  2DE9               	goto	l672
  9185     05E3                     u4290:
  9186     05E3                     l2902:
  9187                           
  9188                           ;C:\Program Files\Microchip\xc8\v2.45\pic\sources\c99\common\doprnt.c: 764:    m++;
  9189     05E3  3001               	movlw	1
  9190     05E4  07AD               	addwf	efgtoa@m^(0+128),f
  9191     05E5  1803               	skipnc
  9192     05E6  0AAE               	incf	(efgtoa@m+1)^(0+128),f
  9193     05E7  3000               	movlw	0
  9194     05E8  07AE               	addwf	(efgtoa@m+1)^(0+128),f
  9195     05E9                     l672:	
  9196                           ;C:\Program Files\Microchip\xc8\v2.45\pic\sources\c99\common\doprnt.c: 767:  }
  9197                           
  9198                           
  9199                           ;C:\Program Files\Microchip\xc8\v2.45\pic\sources\c99\common\doprnt.c: 770:     u = ou;
  9200     05E9  1683               	bsf	3,5	;RP0=1, select bank1
  9201     05EA  1303               	bcf	3,6	;RP1=0, select bank1
  9202     05EB  0837               	movf	(efgtoa@ou+3)^(0+128),w
  9203     05EC  00CC               	movwf	(efgtoa@u+3)^(0+128)
  9204     05ED  0836               	movf	(efgtoa@ou+2)^(0+128),w
  9205     05EE  00CB               	movwf	(efgtoa@u+2)^(0+128)
  9206     05EF  0835               	movf	(efgtoa@ou+1)^(0+128),w
  9207     05F0  00CA               	movwf	(efgtoa@u+1)^(0+128)
  9208     05F1  0834               	movf	efgtoa@ou^(0+128),w
  9209     05F2  00C9               	movwf	efgtoa@u^(0+128)
  9210                           
  9211                           ;C:\Program Files\Microchip\xc8\v2.45\pic\sources\c99\common\doprnt.c: 774:  ne = e;
  9212     05F3  0831               	movf	(efgtoa@e+1)^(0+128),w
  9213     05F4  00A1               	movwf	(efgtoa@ne+1)^(0+128)
  9214     05F5  0830               	movf	efgtoa@e^(0+128),w
  9215     05F6  00A0               	movwf	efgtoa@ne^(0+128)
  9216     05F7                     l2904:
  9217                           
  9218                           ;C:\Program Files\Microchip\xc8\v2.45\pic\sources\c99\common\doprnt.c: 776:     pp = 0;
  9219     05F7  01A8               	clrf	efgtoa@pp^(0+128)
  9220     05F8                     l2906:
  9221                           
  9222                           ;C:\Program Files\Microchip\xc8\v2.45\pic\sources\c99\common\doprnt.c: 777:     t = 0;
  9223     05F8  01A4               	clrf	efgtoa@t^(0+128)
  9224     05F9  01A5               	clrf	(efgtoa@t+1)^(0+128)
  9225     05FA                     l2908:
  9226                           
  9227                           ;C:\Program Files\Microchip\xc8\v2.45\pic\sources\c99\common\doprnt.c: 778:     i = 0;
  9228     05FA  01B8               	clrf	efgtoa@i^(0+128)
  9229     05FB  01B9               	clrf	(efgtoa@i+1)^(0+128)
  9230                           
  9231                           ;C:\Program Files\Microchip\xc8\v2.45\pic\sources\c99\common\doprnt.c: 779:     while ((
      +                          i < m) && (n < (80 - 5))) {
  9232     05FC  2F5D               	goto	l2952
  9233     05FD                     l2910:
  9234                           
  9235                           ;C:\Program Files\Microchip\xc8\v2.45\pic\sources\c99\common\doprnt.c: 780:         l = 
      +                          floorf(h/u.f);
  9236     05FD  1683               	bsf	3,5	;RP0=1, select bank1
  9237     05FE  1303               	bcf	3,6	;RP1=0, select bank1
  9238     05FF  084C               	movf	(efgtoa@u+3)^(0+128),w
  9239     0600  00F3               	movwf	___fldiv@a+3
  9240     0601  084B               	movf	(efgtoa@u+2)^(0+128),w
  9241     0602  00F2               	movwf	___fldiv@a+2
  9242     0603  084A               	movf	(efgtoa@u+1)^(0+128),w
  9243     0604  00F1               	movwf	___fldiv@a+1
  9244     0605  0849               	movf	efgtoa@u^(0+128),w
  9245     0606  00F0               	movwf	___fldiv@a
  9246     0607  083D               	movf	(efgtoa@h+3)^(0+128),w
  9247     0608  00F7               	movwf	___fldiv@b+3
  9248     0609  083C               	movf	(efgtoa@h+2)^(0+128),w
  9249     060A  00F6               	movwf	___fldiv@b+2
  9250     060B  083B               	movf	(efgtoa@h+1)^(0+128),w
  9251     060C  00F5               	movwf	___fldiv@b+1
  9252     060D  083A               	movf	efgtoa@h^(0+128),w
  9253     060E  00F4               	movwf	___fldiv@b
  9254     060F  120A  158A  2082  120A  118A  	fcall	___fldiv
  9255     0614  0873               	movf	?___fldiv+3,w
  9256     0615  1283               	bcf	3,5	;RP0=0, select bank0
  9257     0616  1303               	bcf	3,6	;RP1=0, select bank0
  9258     0617  00B0               	movwf	floorf@x+3
  9259     0618  0872               	movf	?___fldiv+2,w
  9260     0619  00AF               	movwf	floorf@x+2
  9261     061A  0871               	movf	?___fldiv+1,w
  9262     061B  00AE               	movwf	floorf@x+1
  9263     061C  0870               	movf	?___fldiv,w
  9264     061D  00AD               	movwf	floorf@x
  9265     061E  160A  118A  24B9  120A  118A  	fcall	_floorf
  9266     0623  1283               	bcf	3,5	;RP0=0, select bank0
  9267     0624  1303               	bcf	3,6	;RP1=0, select bank0
  9268     0625  0830               	movf	?_floorf+3,w
  9269     0626  1683               	bsf	3,5	;RP0=1, select bank1
  9270     0627  1303               	bcf	3,6	;RP1=0, select bank1
  9271     0628  00C1               	movwf	(efgtoa@l+3)^(0+128)
  9272     0629  1283               	bcf	3,5	;RP0=0, select bank0
  9273     062A  1303               	bcf	3,6	;RP1=0, select bank0
  9274     062B  082F               	movf	?_floorf+2,w
  9275     062C  1683               	bsf	3,5	;RP0=1, select bank1
  9276     062D  1303               	bcf	3,6	;RP1=0, select bank1
  9277     062E  00C0               	movwf	(efgtoa@l+2)^(0+128)
  9278     062F  1283               	bcf	3,5	;RP0=0, select bank0
  9279     0630  1303               	bcf	3,6	;RP1=0, select bank0
  9280     0631  082E               	movf	?_floorf+1,w
  9281     0632  1683               	bsf	3,5	;RP0=1, select bank1
  9282     0633  1303               	bcf	3,6	;RP1=0, select bank1
  9283     0634  00BF               	movwf	(efgtoa@l+1)^(0+128)
  9284     0635  1283               	bcf	3,5	;RP0=0, select bank0
  9285     0636  1303               	bcf	3,6	;RP1=0, select bank0
  9286     0637  082D               	movf	?_floorf,w
  9287     0638  1683               	bsf	3,5	;RP0=1, select bank1
  9288     0639  1303               	bcf	3,6	;RP1=0, select bank1
  9289     063A  00BE               	movwf	efgtoa@l^(0+128)
  9290                           
  9291                           ;C:\Program Files\Microchip\xc8\v2.45\pic\sources\c99\common\doprnt.c: 781:         d = 
      +                          (int)l > 9 ? 9 : (int)l;
  9292     063B  0841               	movf	(efgtoa@l+3)^(0+128),w
  9293     063C  00F3               	movwf	___fltol@f1+3
  9294     063D  0840               	movf	(efgtoa@l+2)^(0+128),w
  9295     063E  00F2               	movwf	___fltol@f1+2
  9296     063F  083F               	movf	(efgtoa@l+1)^(0+128),w
  9297     0640  00F1               	movwf	___fltol@f1+1
  9298     0641  083E               	movf	efgtoa@l^(0+128),w
  9299     0642  00F0               	movwf	___fltol@f1
  9300     0643  120A  158A  200C  120A  118A  	fcall	___fltol
  9301     0648  0871               	movf	?___fltol+1,w
  9302     0649  3A80               	xorlw	128
  9303     064A  00FF               	movwf	btemp+1
  9304     064B  3080               	movlw	128
  9305     064C  027F               	subwf	btemp+1,w
  9306     064D  1D03               	skipz
  9307     064E  2E51               	goto	u4305
  9308     064F  300A               	movlw	10
  9309     0650  0270               	subwf	?___fltol,w
  9310     0651                     u4305:
  9311     0651  1803               	skipnc
  9312     0652  2E54               	goto	u4301
  9313     0653  2E55               	goto	u4300
  9314     0654                     u4301:
  9315     0654  2E6B               	goto	l2914
  9316     0655                     u4300:
  9317     0655                     l2912:
  9318     0655  1683               	bsf	3,5	;RP0=1, select bank1
  9319     0656  1303               	bcf	3,6	;RP1=0, select bank1
  9320     0657  0841               	movf	(efgtoa@l+3)^(0+128),w
  9321     0658  00F3               	movwf	___fltol@f1+3
  9322     0659  0840               	movf	(efgtoa@l+2)^(0+128),w
  9323     065A  00F2               	movwf	___fltol@f1+2
  9324     065B  083F               	movf	(efgtoa@l+1)^(0+128),w
  9325     065C  00F1               	movwf	___fltol@f1+1
  9326     065D  083E               	movf	efgtoa@l^(0+128),w
  9327     065E  00F0               	movwf	___fltol@f1
  9328     065F  120A  158A  200C  120A  118A  	fcall	___fltol
  9329     0664  0871               	movf	?___fltol+1,w
  9330     0665  1683               	bsf	3,5	;RP0=1, select bank1
  9331     0666  1303               	bcf	3,6	;RP1=0, select bank1
  9332     0667  00AC               	movwf	(efgtoa@d+1)^(0+128)
  9333     0668  0870               	movf	?___fltol,w
  9334     0669  00AB               	movwf	efgtoa@d^(0+128)
  9335     066A  2E71               	goto	l2916
  9336     066B                     l2914:
  9337     066B  3009               	movlw	9
  9338     066C  1683               	bsf	3,5	;RP0=1, select bank1
  9339     066D  1303               	bcf	3,6	;RP1=0, select bank1
  9340     066E  00AB               	movwf	efgtoa@d^(0+128)
  9341     066F  3000               	movlw	0
  9342     0670  00AC               	movwf	(efgtoa@d^(0+128)+1)
  9343     0671                     l2916:
  9344                           
  9345                           ;C:\Program Files\Microchip\xc8\v2.45\pic\sources\c99\common\doprnt.c: 792:   {;C:\Progr
      +                          am Files\Microchip\xc8\v2.45\pic\sources\c99\common\doprnt.c: 793:             if (!pp &
      +                          & (ne < 0)) {
  9346     0671  0828               	movf	efgtoa@pp^(0+128),w
  9347     0672  1D03               	btfss	3,2
  9348     0673  2E75               	goto	u4311
  9349     0674  2E76               	goto	u4310
  9350     0675                     u4311:
  9351     0675  2EA7               	goto	l2936
  9352     0676                     u4310:
  9353     0676                     l2918:
  9354     0676  1FA1               	btfss	(efgtoa@ne+1)^(0+128),7
  9355     0677  2E79               	goto	u4321
  9356     0678  2E7A               	goto	u4320
  9357     0679                     u4321:
  9358     0679  2EA7               	goto	l2936
  9359     067A                     u4320:
  9360     067A                     l2920:
  9361                           
  9362                           ;C:\Program Files\Microchip\xc8\v2.45\pic\sources\c99\common\doprnt.c: 794:             
      +                              dbuf[n++] = '.';
  9363     067A  0843               	movf	efgtoa@n^(0+128),w
  9364     067B  3E98               	addlw	(low (_dbuf| (0+256)))& (0+255)
  9365     067C  0084               	movwf	4
  9366     067D  302E               	movlw	46
  9367     067E  1783               	bsf	3,7	;select IRP bank3
  9368     067F  0080               	movwf	0
  9369     0680                     l2922:
  9370     0680  3001               	movlw	1
  9371     0681  07C3               	addwf	efgtoa@n^(0+128),f
  9372     0682  1803               	skipnc
  9373     0683  0AC4               	incf	(efgtoa@n+1)^(0+128),f
  9374     0684  3000               	movlw	0
  9375     0685  07C4               	addwf	(efgtoa@n+1)^(0+128),f
  9376     0686                     l2924:
  9377                           
  9378                           ;C:\Program Files\Microchip\xc8\v2.45\pic\sources\c99\common\doprnt.c: 795:             
      +                              --w;
  9379     0686  30FF               	movlw	255
  9380     0687  07B2               	addwf	efgtoa@w^(0+128),f
  9381     0688  1803               	skipnc
  9382     0689  0AB3               	incf	(efgtoa@w+1)^(0+128),f
  9383     068A  30FF               	movlw	255
  9384     068B  07B3               	addwf	(efgtoa@w+1)^(0+128),f
  9385     068C                     l2926:
  9386                           
  9387                           ;C:\Program Files\Microchip\xc8\v2.45\pic\sources\c99\common\doprnt.c: 796:             
      +                              pp = 1;
  9388     068C  01A8               	clrf	efgtoa@pp^(0+128)
  9389     068D  0AA8               	incf	efgtoa@pp^(0+128),f
  9390     068E  2EA7               	goto	l2936
  9391     068F                     l2928:
  9392                           
  9393                           ;C:\Program Files\Microchip\xc8\v2.45\pic\sources\c99\common\doprnt.c: 799:             
      +                              dbuf[n++] = '0';
  9394     068F  0843               	movf	efgtoa@n^(0+128),w
  9395     0690  3E98               	addlw	(low (_dbuf| (0+256)))& (0+255)
  9396     0691  0084               	movwf	4
  9397     0692  3030               	movlw	48
  9398     0693  1783               	bsf	3,7	;select IRP bank3
  9399     0694  0080               	movwf	0
  9400     0695                     l2930:
  9401     0695  3001               	movlw	1
  9402     0696  07C3               	addwf	efgtoa@n^(0+128),f
  9403     0697  1803               	skipnc
  9404     0698  0AC4               	incf	(efgtoa@n+1)^(0+128),f
  9405     0699  3000               	movlw	0
  9406     069A  07C4               	addwf	(efgtoa@n+1)^(0+128),f
  9407     069B                     l2932:
  9408                           
  9409                           ;C:\Program Files\Microchip\xc8\v2.45\pic\sources\c99\common\doprnt.c: 800:             
      +                              --w;
  9410     069B  30FF               	movlw	255
  9411     069C  07B2               	addwf	efgtoa@w^(0+128),f
  9412     069D  1803               	skipnc
  9413     069E  0AB3               	incf	(efgtoa@w+1)^(0+128),f
  9414     069F  30FF               	movlw	255
  9415     06A0  07B3               	addwf	(efgtoa@w+1)^(0+128),f
  9416     06A1                     l2934:
  9417                           
  9418                           ;C:\Program Files\Microchip\xc8\v2.45\pic\sources\c99\common\doprnt.c: 801:             
      +                              --t;
  9419     06A1  30FF               	movlw	255
  9420     06A2  07A4               	addwf	efgtoa@t^(0+128),f
  9421     06A3  1803               	skipnc
  9422     06A4  0AA5               	incf	(efgtoa@t+1)^(0+128),f
  9423     06A5  30FF               	movlw	255
  9424     06A6  07A5               	addwf	(efgtoa@t+1)^(0+128),f
  9425     06A7                     l2936:
  9426                           
  9427                           ;C:\Program Files\Microchip\xc8\v2.45\pic\sources\c99\common\doprnt.c: 798:             
      +                          while (t) {
  9428     06A7  0824               	movf	efgtoa@t^(0+128),w
  9429     06A8  0425               	iorwf	(efgtoa@t+1)^(0+128),w
  9430     06A9  1D03               	btfss	3,2
  9431     06AA  2EAC               	goto	u4331
  9432     06AB  2EAD               	goto	u4330
  9433     06AC                     u4331:
  9434     06AC  2E8F               	goto	l2928
  9435     06AD                     u4330:
  9436     06AD                     l2938:
  9437                           
  9438                           ;C:\Program Files\Microchip\xc8\v2.45\pic\sources\c99\common\doprnt.c: 803:             
      +                          dbuf[n++] = (char)((int)'0' + d);
  9439     06AD  0843               	movf	efgtoa@n^(0+128),w
  9440     06AE  3E98               	addlw	(low (_dbuf| (0+256)))& (0+255)
  9441     06AF  0084               	movwf	4
  9442     06B0  082B               	movf	efgtoa@d^(0+128),w
  9443     06B1  3E30               	addlw	48
  9444     06B2  1783               	bsf	3,7	;select IRP bank3
  9445     06B3  0080               	movwf	0
  9446     06B4                     l2940:
  9447     06B4  3001               	movlw	1
  9448     06B5  07C3               	addwf	efgtoa@n^(0+128),f
  9449     06B6  1803               	skipnc
  9450     06B7  0AC4               	incf	(efgtoa@n+1)^(0+128),f
  9451     06B8  3000               	movlw	0
  9452     06B9  07C4               	addwf	(efgtoa@n+1)^(0+128),f
  9453     06BA                     l2942:
  9454                           
  9455                           ;C:\Program Files\Microchip\xc8\v2.45\pic\sources\c99\common\doprnt.c: 804:             
      +                          --w;
  9456     06BA  30FF               	movlw	255
  9457     06BB  07B2               	addwf	efgtoa@w^(0+128),f
  9458     06BC  1803               	skipnc
  9459     06BD  0AB3               	incf	(efgtoa@w+1)^(0+128),f
  9460     06BE  30FF               	movlw	255
  9461     06BF  07B3               	addwf	(efgtoa@w+1)^(0+128),f
  9462     06C0                     l2944:
  9463                           
  9464                           ;C:\Program Files\Microchip\xc8\v2.45\pic\sources\c99\common\doprnt.c: 805:         };C:
      +                          \Program Files\Microchip\xc8\v2.45\pic\sources\c99\common\doprnt.c: 806:         h -= l*
      +                          u.f;
  9465     06C0  084C               	movf	(efgtoa@u+3)^(0+128),w
  9466     06C1  1283               	bcf	3,5	;RP0=0, select bank0
  9467     06C2  1303               	bcf	3,6	;RP1=0, select bank0
  9468     06C3  00A7               	movwf	___flmul@a+3
  9469     06C4  1683               	bsf	3,5	;RP0=1, select bank1
  9470     06C5  1303               	bcf	3,6	;RP1=0, select bank1
  9471     06C6  084B               	movf	(efgtoa@u+2)^(0+128),w
  9472     06C7  1283               	bcf	3,5	;RP0=0, select bank0
  9473     06C8  1303               	bcf	3,6	;RP1=0, select bank0
  9474     06C9  00A6               	movwf	___flmul@a+2
  9475     06CA  1683               	bsf	3,5	;RP0=1, select bank1
  9476     06CB  1303               	bcf	3,6	;RP1=0, select bank1
  9477     06CC  084A               	movf	(efgtoa@u+1)^(0+128),w
  9478     06CD  1283               	bcf	3,5	;RP0=0, select bank0
  9479     06CE  1303               	bcf	3,6	;RP1=0, select bank0
  9480     06CF  00A5               	movwf	___flmul@a+1
  9481     06D0  1683               	bsf	3,5	;RP0=1, select bank1
  9482     06D1  1303               	bcf	3,6	;RP1=0, select bank1
  9483     06D2  0849               	movf	efgtoa@u^(0+128),w
  9484     06D3  1283               	bcf	3,5	;RP0=0, select bank0
  9485     06D4  1303               	bcf	3,6	;RP1=0, select bank0
  9486     06D5  00A4               	movwf	___flmul@a
  9487     06D6  1683               	bsf	3,5	;RP0=1, select bank1
  9488     06D7  1303               	bcf	3,6	;RP1=0, select bank1
  9489     06D8  0841               	movf	(efgtoa@l+3)^(0+128),w
  9490     06D9  1283               	bcf	3,5	;RP0=0, select bank0
  9491     06DA  1303               	bcf	3,6	;RP1=0, select bank0
  9492     06DB  00A3               	movwf	___flmul@b+3
  9493     06DC  1683               	bsf	3,5	;RP0=1, select bank1
  9494     06DD  1303               	bcf	3,6	;RP1=0, select bank1
  9495     06DE  0840               	movf	(efgtoa@l+2)^(0+128),w
  9496     06DF  1283               	bcf	3,5	;RP0=0, select bank0
  9497     06E0  1303               	bcf	3,6	;RP1=0, select bank0
  9498     06E1  00A2               	movwf	___flmul@b+2
  9499     06E2  1683               	bsf	3,5	;RP0=1, select bank1
  9500     06E3  1303               	bcf	3,6	;RP1=0, select bank1
  9501     06E4  083F               	movf	(efgtoa@l+1)^(0+128),w
  9502     06E5  1283               	bcf	3,5	;RP0=0, select bank0
  9503     06E6  1303               	bcf	3,6	;RP1=0, select bank0
  9504     06E7  00A1               	movwf	___flmul@b+1
  9505     06E8  1683               	bsf	3,5	;RP0=1, select bank1
  9506     06E9  1303               	bcf	3,6	;RP1=0, select bank1
  9507     06EA  083E               	movf	efgtoa@l^(0+128),w
  9508     06EB  1283               	bcf	3,5	;RP0=0, select bank0
  9509     06EC  1303               	bcf	3,6	;RP1=0, select bank0
  9510     06ED  00A0               	movwf	___flmul@b
  9511     06EE  120A  158A  24BB  120A  118A  	fcall	___flmul
  9512     06F3  1283               	bcf	3,5	;RP0=0, select bank0
  9513     06F4  1303               	bcf	3,6	;RP1=0, select bank0
  9514     06F5  0823               	movf	?___flmul+3,w
  9515     06F6  00BD               	movwf	___flsub@a+3
  9516     06F7  0822               	movf	?___flmul+2,w
  9517     06F8  00BC               	movwf	___flsub@a+2
  9518     06F9  0821               	movf	?___flmul+1,w
  9519     06FA  00BB               	movwf	___flsub@a+1
  9520     06FB  0820               	movf	?___flmul,w
  9521     06FC  00BA               	movwf	___flsub@a
  9522     06FD  1683               	bsf	3,5	;RP0=1, select bank1
  9523     06FE  1303               	bcf	3,6	;RP1=0, select bank1
  9524     06FF  083D               	movf	(efgtoa@h+3)^(0+128),w
  9525     0700  1283               	bcf	3,5	;RP0=0, select bank0
  9526     0701  1303               	bcf	3,6	;RP1=0, select bank0
  9527     0702  00C1               	movwf	___flsub@b+3
  9528     0703  1683               	bsf	3,5	;RP0=1, select bank1
  9529     0704  1303               	bcf	3,6	;RP1=0, select bank1
  9530     0705  083C               	movf	(efgtoa@h+2)^(0+128),w
  9531     0706  1283               	bcf	3,5	;RP0=0, select bank0
  9532     0707  1303               	bcf	3,6	;RP1=0, select bank0
  9533     0708  00C0               	movwf	___flsub@b+2
  9534     0709  1683               	bsf	3,5	;RP0=1, select bank1
  9535     070A  1303               	bcf	3,6	;RP1=0, select bank1
  9536     070B  083B               	movf	(efgtoa@h+1)^(0+128),w
  9537     070C  1283               	bcf	3,5	;RP0=0, select bank0
  9538     070D  1303               	bcf	3,6	;RP1=0, select bank0
  9539     070E  00BF               	movwf	___flsub@b+1
  9540     070F  1683               	bsf	3,5	;RP0=1, select bank1
  9541     0710  1303               	bcf	3,6	;RP1=0, select bank1
  9542     0711  083A               	movf	efgtoa@h^(0+128),w
  9543     0712  1283               	bcf	3,5	;RP0=0, select bank0
  9544     0713  1303               	bcf	3,6	;RP1=0, select bank0
  9545     0714  00BE               	movwf	___flsub@b
  9546     0715  160A  118A  2030  120A  118A  	fcall	___flsub
  9547     071A  1283               	bcf	3,5	;RP0=0, select bank0
  9548     071B  1303               	bcf	3,6	;RP1=0, select bank0
  9549     071C  083D               	movf	?___flsub+3,w
  9550     071D  1683               	bsf	3,5	;RP0=1, select bank1
  9551     071E  1303               	bcf	3,6	;RP1=0, select bank1
  9552     071F  00BD               	movwf	(efgtoa@h+3)^(0+128)
  9553     0720  1283               	bcf	3,5	;RP0=0, select bank0
  9554     0721  1303               	bcf	3,6	;RP1=0, select bank0
  9555     0722  083C               	movf	?___flsub+2,w
  9556     0723  1683               	bsf	3,5	;RP0=1, select bank1
  9557     0724  1303               	bcf	3,6	;RP1=0, select bank1
  9558     0725  00BC               	movwf	(efgtoa@h+2)^(0+128)
  9559     0726  1283               	bcf	3,5	;RP0=0, select bank0
  9560     0727  1303               	bcf	3,6	;RP1=0, select bank0
  9561     0728  083B               	movf	?___flsub+1,w
  9562     0729  1683               	bsf	3,5	;RP0=1, select bank1
  9563     072A  1303               	bcf	3,6	;RP1=0, select bank1
  9564     072B  00BB               	movwf	(efgtoa@h+1)^(0+128)
  9565     072C  1283               	bcf	3,5	;RP0=0, select bank0
  9566     072D  1303               	bcf	3,6	;RP1=0, select bank0
  9567     072E  083A               	movf	?___flsub,w
  9568     072F  1683               	bsf	3,5	;RP0=1, select bank1
  9569     0730  1303               	bcf	3,6	;RP1=0, select bank1
  9570     0731  00BA               	movwf	efgtoa@h^(0+128)
  9571     0732                     l2946:
  9572                           
  9573                           ;C:\Program Files\Microchip\xc8\v2.45\pic\sources\c99\common\doprnt.c: 807:         u.f 
      +                          = u.f/10.0;
  9574     0732  3041               	movlw	65
  9575     0733  00F3               	movwf	___fldiv@a+3
  9576     0734  3020               	movlw	32
  9577     0735  00F2               	movwf	___fldiv@a+2
  9578     0736  3000               	movlw	0
  9579     0737  00F1               	movwf	___fldiv@a+1
  9580     0738  3000               	movlw	0
  9581     0739  00F0               	movwf	___fldiv@a
  9582     073A  084C               	movf	(efgtoa@u+3)^(0+128),w
  9583     073B  00F7               	movwf	___fldiv@b+3
  9584     073C  084B               	movf	(efgtoa@u+2)^(0+128),w
  9585     073D  00F6               	movwf	___fldiv@b+2
  9586     073E  084A               	movf	(efgtoa@u+1)^(0+128),w
  9587     073F  00F5               	movwf	___fldiv@b+1
  9588     0740  0849               	movf	efgtoa@u^(0+128),w
  9589     0741  00F4               	movwf	___fldiv@b
  9590     0742  120A  158A  2082  120A  118A  	fcall	___fldiv
  9591     0747  0873               	movf	?___fldiv+3,w
  9592     0748  1683               	bsf	3,5	;RP0=1, select bank1
  9593     0749  1303               	bcf	3,6	;RP1=0, select bank1
  9594     074A  00CC               	movwf	(efgtoa@u+3)^(0+128)
  9595     074B  0872               	movf	?___fldiv+2,w
  9596     074C  00CB               	movwf	(efgtoa@u+2)^(0+128)
  9597     074D  0871               	movf	?___fldiv+1,w
  9598     074E  00CA               	movwf	(efgtoa@u+1)^(0+128)
  9599     074F  0870               	movf	?___fldiv,w
  9600     0750  00C9               	movwf	efgtoa@u^(0+128)
  9601     0751                     l2948:
  9602                           
  9603                           ;C:\Program Files\Microchip\xc8\v2.45\pic\sources\c99\common\doprnt.c: 808:         --ne
      +                          ;
  9604     0751  30FF               	movlw	255
  9605     0752  07A0               	addwf	efgtoa@ne^(0+128),f
  9606     0753  1803               	skipnc
  9607     0754  0AA1               	incf	(efgtoa@ne+1)^(0+128),f
  9608     0755  30FF               	movlw	255
  9609     0756  07A1               	addwf	(efgtoa@ne+1)^(0+128),f
  9610     0757                     l2950:
  9611                           
  9612                           ;C:\Program Files\Microchip\xc8\v2.45\pic\sources\c99\common\doprnt.c: 809:         ++i;
  9613     0757  3001               	movlw	1
  9614     0758  07B8               	addwf	efgtoa@i^(0+128),f
  9615     0759  1803               	skipnc
  9616     075A  0AB9               	incf	(efgtoa@i+1)^(0+128),f
  9617     075B  3000               	movlw	0
  9618     075C  07B9               	addwf	(efgtoa@i+1)^(0+128),f
  9619     075D                     l2952:
  9620                           
  9621                           ;C:\Program Files\Microchip\xc8\v2.45\pic\sources\c99\common\doprnt.c: 779:     while ((
      +                          i < m) && (n < (80 - 5))) {
  9622     075D  0839               	movf	(efgtoa@i+1)^(0+128),w
  9623     075E  3A80               	xorlw	128
  9624     075F  1283               	bcf	3,5	;RP0=0, select bank0
  9625     0760  1303               	bcf	3,6	;RP1=0, select bank0
  9626     0761  00CB               	movwf	??_efgtoa
  9627     0762  1683               	bsf	3,5	;RP0=1, select bank1
  9628     0763  1303               	bcf	3,6	;RP1=0, select bank1
  9629     0764  082E               	movf	(efgtoa@m+1)^(0+128),w
  9630     0765  3A80               	xorlw	128
  9631     0766  1283               	bcf	3,5	;RP0=0, select bank0
  9632     0767  1303               	bcf	3,6	;RP1=0, select bank0
  9633     0768  024B               	subwf	??_efgtoa,w
  9634     0769  1D03               	skipz
  9635     076A  2F6F               	goto	u4345
  9636     076B  1683               	bsf	3,5	;RP0=1, select bank1
  9637     076C  1303               	bcf	3,6	;RP1=0, select bank1
  9638     076D  082D               	movf	efgtoa@m^(0+128),w
  9639     076E  0238               	subwf	efgtoa@i^(0+128),w
  9640     076F                     u4345:
  9641     076F  1803               	skipnc
  9642     0770  2F72               	goto	u4341
  9643     0771  2F73               	goto	u4340
  9644     0772                     u4341:
  9645     0772  2F82               	goto	l2956
  9646     0773                     u4340:
  9647     0773                     l2954:
  9648     0773  1683               	bsf	3,5	;RP0=1, select bank1
  9649     0774  1303               	bcf	3,6	;RP1=0, select bank1
  9650     0775  0844               	movf	(efgtoa@n+1)^(0+128),w
  9651     0776  3A80               	xorlw	128
  9652     0777  00FF               	movwf	btemp+1
  9653     0778  3080               	movlw	128
  9654     0779  027F               	subwf	btemp+1,w
  9655     077A  1D03               	skipz
  9656     077B  2F7E               	goto	u4355
  9657     077C  304B               	movlw	75
  9658     077D  0243               	subwf	efgtoa@n^(0+128),w
  9659     077E                     u4355:
  9660     077E  1C03               	skipc
  9661     077F  2F81               	goto	u4351
  9662     0780  2F82               	goto	u4350
  9663     0781                     u4351:
  9664     0781  2DFD               	goto	l2910
  9665     0782                     u4350:
  9666     0782                     l2956:
  9667                           
  9668                           ;C:\Program Files\Microchip\xc8\v2.45\pic\sources\c99\common\doprnt.c: 816:  i = sizeof(
      +                          dbuf) - 1;
  9669     0782  304F               	movlw	79
  9670     0783  1683               	bsf	3,5	;RP0=1, select bank1
  9671     0784  1303               	bcf	3,6	;RP1=0, select bank1
  9672     0785  00B8               	movwf	efgtoa@i^(0+128)
  9673     0786  3000               	movlw	0
  9674     0787  00B9               	movwf	(efgtoa@i^(0+128)+1)
  9675     0788                     l2958:
  9676                           
  9677                           ;C:\Program Files\Microchip\xc8\v2.45\pic\sources\c99\common\doprnt.c: 817:     dbuf[i] 
      +                          = '\0';
  9678     0788  0838               	movf	efgtoa@i^(0+128),w
  9679     0789  3E98               	addlw	(low (_dbuf| (0+256)))& (0+255)
  9680     078A  0084               	movwf	4
  9681     078B  1783               	bsf	3,7	;select IRP bank3
  9682     078C  0180               	clrf	0
  9683     078D                     l2960:
  9684                           
  9685                           ;C:\Program Files\Microchip\xc8\v2.45\pic\sources\c99\common\doprnt.c: 848:  memcpy(&dbu
      +                          f[i-n], &dbuf[0], (size_t)n);
  9686     078D  3098               	movlw	(low (_dbuf| (0+256)))& (0+255)
  9687     078E  00F0               	movwf	memcpy@s1
  9688     078F  0844               	movf	(efgtoa@n+1)^(0+128),w
  9689     0790  00F2               	movwf	memcpy@n+1
  9690     0791  0843               	movf	efgtoa@n^(0+128),w
  9691     0792  00F1               	movwf	memcpy@n
  9692     0793  3098               	movlw	(low (_dbuf| (0+256)))& (0+255)
  9693     0794  1283               	bcf	3,5	;RP0=0, select bank0
  9694     0795  1303               	bcf	3,6	;RP1=0, select bank0
  9695     0796  00CB               	movwf	??_efgtoa
  9696     0797  1683               	bsf	3,5	;RP0=1, select bank1
  9697     0798  1303               	bcf	3,6	;RP1=0, select bank1
  9698     0799  0843               	movf	efgtoa@n^(0+128),w
  9699     079A  1283               	bcf	3,5	;RP0=0, select bank0
  9700     079B  1303               	bcf	3,6	;RP1=0, select bank0
  9701     079C  02CB               	subwf	??_efgtoa,f
  9702     079D  1683               	bsf	3,5	;RP0=1, select bank1
  9703     079E  1303               	bcf	3,6	;RP1=0, select bank1
  9704     079F  0838               	movf	efgtoa@i^(0+128),w
  9705     07A0  1283               	bcf	3,5	;RP0=0, select bank0
  9706     07A1  1303               	bcf	3,6	;RP1=0, select bank0
  9707     07A2  074B               	addwf	??_efgtoa,w
  9708     07A3  160A  118A  2079  120A  118A  	fcall	_memcpy
  9709     07A8                     l2962:
  9710                           
  9711                           ;C:\Program Files\Microchip\xc8\v2.45\pic\sources\c99\common\doprnt.c: 849:  n = i-n;
  9712     07A8  1683               	bsf	3,5	;RP0=1, select bank1
  9713     07A9  1303               	bcf	3,6	;RP1=0, select bank1
  9714     07AA  0843               	movf	efgtoa@n^(0+128),w
  9715     07AB  0238               	subwf	efgtoa@i^(0+128),w
  9716     07AC  00C3               	movwf	efgtoa@n^(0+128)
  9717     07AD  0844               	movf	(efgtoa@n+1)^(0+128),w
  9718     07AE  1C03               	skipc
  9719     07AF  0A44               	incf	(efgtoa@n+1)^(0+128),w
  9720     07B0  0239               	subwf	(efgtoa@i+1)^(0+128),w
  9721     07B1  00C4               	movwf	(efgtoa@n+1)^(0+128)
  9722     07B2                     l2964:
  9723                           
  9724                           ;C:\Program Files\Microchip\xc8\v2.45\pic\sources\c99\common\doprnt.c: 850:  i = sign ==
      +                           0 ? 0 : 1;
  9725     07B2  0842               	movf	efgtoa@sign^(0+128),w
  9726     07B3  1D03               	btfss	3,2
  9727     07B4  2FB6               	goto	u4361
  9728     07B5  2FB8               	goto	u4360
  9729     07B6                     u4361:
  9730     07B6  3001               	movlw	1
  9731     07B7  2FB9               	goto	u4370
  9732     07B8                     u4360:
  9733     07B8  3000               	movlw	0
  9734     07B9                     u4370:
  9735     07B9  1283               	bcf	3,5	;RP0=0, select bank0
  9736     07BA  1303               	bcf	3,6	;RP1=0, select bank0
  9737     07BB  00CB               	movwf	??_efgtoa
  9738     07BC  01CC               	clrf	??_efgtoa+1
  9739     07BD  084B               	movf	??_efgtoa,w
  9740     07BE  1683               	bsf	3,5	;RP0=1, select bank1
  9741     07BF  1303               	bcf	3,6	;RP1=0, select bank1
  9742     07C0  00B8               	movwf	efgtoa@i^(0+128)
  9743     07C1  1283               	bcf	3,5	;RP0=0, select bank0
  9744     07C2  1303               	bcf	3,6	;RP1=0, select bank0
  9745     07C3  084C               	movf	??_efgtoa+1,w
  9746     07C4  1683               	bsf	3,5	;RP0=1, select bank1
  9747     07C5  1303               	bcf	3,6	;RP1=0, select bank1
  9748     07C6  00B9               	movwf	(efgtoa@i+1)^(0+128)
  9749     07C7                     l2966:
  9750                           
  9751                           ;C:\Program Files\Microchip\xc8\v2.45\pic\sources\c99\common\doprnt.c: 861:  if (sign) {
  9752     07C7  0842               	movf	efgtoa@sign^(0+128),w
  9753     07C8  1903               	btfsc	3,2
  9754     07C9  2FCB               	goto	u4381
  9755     07CA  2FCC               	goto	u4380
  9756     07CB                     u4381:
  9757     07CB  2FD8               	goto	l2970
  9758     07CC                     u4380:
  9759     07CC                     l2968:
  9760                           
  9761                           ;C:\Program Files\Microchip\xc8\v2.45\pic\sources\c99\common\doprnt.c: 862:   dbuf[--n] 
      +                          = sign;
  9762     07CC  30FF               	movlw	255
  9763     07CD  07C3               	addwf	efgtoa@n^(0+128),f
  9764     07CE  1803               	skipnc
  9765     07CF  0AC4               	incf	(efgtoa@n+1)^(0+128),f
  9766     07D0  30FF               	movlw	255
  9767     07D1  07C4               	addwf	(efgtoa@n+1)^(0+128),f
  9768     07D2  0843               	movf	efgtoa@n^(0+128),w
  9769     07D3  3E98               	addlw	(low (_dbuf| (0+256)))& (0+255)
  9770     07D4  0084               	movwf	4
  9771     07D5  0842               	movf	efgtoa@sign^(0+128),w
  9772     07D6  1783               	bsf	3,7	;select IRP bank3
  9773     07D7  0080               	movwf	0
  9774     07D8                     l2970:
  9775                           
  9776                           ;C:\Program Files\Microchip\xc8\v2.45\pic\sources\c99\common\doprnt.c: 864:  w -= i;
  9777     07D8  0838               	movf	efgtoa@i^(0+128),w
  9778     07D9  02B2               	subwf	efgtoa@w^(0+128),f
  9779     07DA  0839               	movf	(efgtoa@i+1)^(0+128),w
  9780     07DB  1C03               	skipc
  9781     07DC  03B3               	decf	(efgtoa@w+1)^(0+128),f
  9782     07DD  02B3               	subwf	(efgtoa@w+1)^(0+128),f
  9783     07DE                     l2972:
  9784                           
  9785                           ;C:\Program Files\Microchip\xc8\v2.45\pic\sources\c99\common\doprnt.c: 867:     return (
      +                          void) pad(fp, &dbuf[n], w);
  9786     07DE  0843               	movf	efgtoa@n^(0+128),w
  9787     07DF  3E98               	addlw	(low (_dbuf| (0+256)))& (0+255)
  9788     07E0  00FB               	movwf	pad@buf
  9789     07E1  0833               	movf	(efgtoa@w+1)^(0+128),w
  9790     07E2  00FD               	movwf	pad@p+1
  9791     07E3  0832               	movf	efgtoa@w^(0+128),w
  9792     07E4  00FC               	movwf	pad@p
  9793     07E5  082F               	movf	efgtoa@fp^(0+128),w
  9794     07E6  160A  118A  21A4  120A  118A  	fcall	_pad
  9795     07EB                     l646:
  9796     07EB  0008               	return
  9797     07EC                     __end_of_efgtoa:

Data Sizes:
    Strings     23
    Constant    0
    Data        0
    BSS         93
    Persistent  0
    Stack       0

Auto Spaces:
    Space          Size  Autos    Used
    COMMON           14     14      14
    BANK0            80     72      77
    BANK1            80     80      80
    BANK3            96      0      88
    BANK2            96      0       0

Pointer List with Targets:

    efgtoa@fp	PTR struct _IO_FILE size(1) Largest target is 11
		 -> sprintf@f(BANK0[11]), 

    f$.$buffer	PTR unsigned char  size(1) Largest target is 0

    f$.$source	PTR const unsigned char  size(1) Largest target is 0

    fputc@fp	PTR struct _IO_FILE size(1) Largest target is 11
		 -> sprintf@f(BANK0[11]), 

    fputc@fp$.$buffer	PTR unsigned char  size(1) Largest target is 0

    fputc@fp$.$source	PTR const unsigned char  size(1) Largest target is 0

    fputs@fp	PTR struct _IO_FILE size(1) Largest target is 11
		 -> sprintf@f(BANK0[11]), 

    fputs@s	PTR const unsigned char  size(1) Largest target is 80
		 -> dbuf(BANK3[80]), 

    LCD_String@str	PTR unsigned char  size(2) Largest target is 32
		 -> main@Temp(BANK1[16]), STR_1(CODE[9]), 

    memcpy@d	PTR unsigned char  size(1) Largest target is 80
		 -> dbuf(BANK3[80]), 

    memcpy@d1	PTR void  size(1) Largest target is 80
		 -> dbuf(BANK3[80]), 

    memcpy@s	PTR const unsigned char  size(1) Largest target is 80
		 -> dbuf(BANK3[80]), 

    memcpy@s1	PTR const void  size(1) Largest target is 80
		 -> dbuf(BANK3[80]), 

    pad@buf	PTR unsigned char  size(1) Largest target is 80
		 -> dbuf(BANK3[80]), 

    pad@fp	PTR struct _IO_FILE size(1) Largest target is 11
		 -> sprintf@f(BANK0[11]), 

    read_prec_or_width@ap	PTR PTR void [1] size(1) Largest target is 1
		 -> sprintf@ap(BANK0[1]), 

    read_prec_or_width@fmt	PTR PTR const unsigned char  size(1) Largest target is 1
		 -> vfprintf@cfmt(BANK0[1]), 

    S587$buffer	PTR unsigned char  size(1) Largest target is 0

    S587$source	PTR const unsigned char  size(1) Largest target is 0

    sp__memcpy	PTR void  size(1) Largest target is 80
		 -> dbuf(BANK3[80]), 

    sp__strcpy	PTR unsigned char  size(1) Largest target is 80
		 -> dbuf(BANK3[80]), 

    sprintf@ap	PTR void [1] size(1) Largest target is 2
		 -> ?_sprintf(BANK1[2]), 

    sprintf@fmt	PTR const unsigned char  size(1) Largest target is 6
		 -> STR_2(CODE[6]), 

    sprintf@s	PTR unsigned char  size(1) Largest target is 32
		 -> main@Temp(BANK1[16]), 

    strcpy@d	PTR unsigned char  size(1) Largest target is 80
		 -> dbuf(BANK3[80]), 

    strcpy@dest	PTR unsigned char  size(1) Largest target is 80
		 -> dbuf(BANK3[80]), 

    strcpy@src	PTR const unsigned char  size(1) Largest target is 4
		 -> STR_3(CODE[4]), STR_6(CODE[4]), 

    vfpfcnvrt@ap	PTR PTR void  size(1) Largest target is 1
		 -> sprintf@ap(BANK0[1]), 

    vfpfcnvrt@cp	PTR unsigned char  size(1) Largest target is 6
		 -> STR_2(CODE[6]), 

    vfpfcnvrt@fmt	PTR PTR unsigned char  size(1) Largest target is 1
		 -> vfprintf@cfmt(BANK0[1]), 

    vfpfcnvrt@fp	PTR struct _IO_FILE size(1) Largest target is 11
		 -> sprintf@f(BANK0[11]), 

    vfprintf@ap	PTR PTR void  size(1) Largest target is 1
		 -> sprintf@ap(BANK0[1]), 

    vfprintf@cfmt	PTR unsigned char  size(1) Largest target is 6
		 -> STR_2(CODE[6]), 

    vfprintf@fmt	PTR const unsigned char  size(1) Largest target is 6
		 -> STR_2(CODE[6]), 

    vfprintf@fp	PTR struct _IO_FILE size(1) Largest target is 11
		 -> sprintf@f(BANK0[11]), 


Critical Paths under _main in COMMON

    _main->___xxtofl
    _read_prec_or_width->___wmul
    _efgtoa->_pad
    _pad->_fputs
    _fputs->_fputc
    _floorf->___fldiv
    ___flmul->___xxtofl
    _LCD_String->_LCD_Data
    _LCD_Init->_LCD_Cmd

Critical Paths under _main in BANK0

    _main->_sprintf
    _sprintf->_vfprintf
    _vfprintf->_vfpfcnvrt
    _vfpfcnvrt->_efgtoa
    _efgtoa->___flge
    _pad->_fputs
    _floorf->___fldiv
    ___flsub->___flmul
    ___flge->___flmul

Critical Paths under _main in BANK1

    _main->_sprintf
    _sprintf->_vfprintf
    _vfprintf->_vfpfcnvrt
    _vfpfcnvrt->_efgtoa

Critical Paths under _main in BANK3

    None.

Critical Paths under _main in BANK2

    None.

Call Graph Tables:

 ---------------------------------------------------------------------------------
 (Depth) Function   	        Calls       Base Space   Used Autos Params    Refs
 ---------------------------------------------------------------------------------
 (0) _main                                                26    26      0   27403
                                             54 BANK1     26    26      0
                           _ADC_Init
                           _ADC_Read
                            _LCD_Cmd
                           _LCD_Init
                         _LCD_String
                            ___fldiv
                            ___flmul
                           ___xxtofl
                            _sprintf
 ---------------------------------------------------------------------------------
 (1) _sprintf                                             21    16      5   21105
                                             58 BANK0     14    14      0
                                             49 BANK1      5     0      5
                           _vfprintf
 ---------------------------------------------------------------------------------
 (2) _vfprintf                                             4     2      2   20793
                                             56 BANK0      2     2      0
                                             47 BANK1      2     0      2
                          _vfpfcnvrt
 ---------------------------------------------------------------------------------
 (3) _vfpfcnvrt                                           12    10      2   20477
                                             47 BANK0      9     9      0
                                             45 BANK1      2     0      2
                             _efgtoa
                              _fputc
                 _read_prec_or_width
 ---------------------------------------------------------------------------------
 (4) _read_prec_or_width                                   6     4      2     533
                                              6 COMMON     6     4      2
                             ___wmul
 ---------------------------------------------------------------------------------
 (5) ___wmul                                               6     2      4     244
                                              0 COMMON     6     2      4
 ---------------------------------------------------------------------------------
 (4) _efgtoa                                              55    50      5   18564
                                             38 BANK0      9     4      5
                                              0 BANK1     45    45      0
                            ___fladd
                            ___fldiv
                             ___fleq
                             ___flge
                            ___flmul
                            ___flneg
                            ___flsub
                            ___fltol
                      ___fpclassifyf
                             _floorf
                               _labs
                             _memcpy
                                _pad
                             _strcpy
 ---------------------------------------------------------------------------------
 (6) _strcpy                                               3     2      1     291
                                              0 COMMON     3     2      1
 ---------------------------------------------------------------------------------
 (5) _pad                                                  7     4      3    2260
                                             11 COMMON     3     0      3
                                              4 BANK0      4     4      0
                              _fputc
                              _fputs
 ---------------------------------------------------------------------------------
 (6) _fputs                                                7     6      1     888
                                              8 COMMON     3     2      1
                                              0 BANK0      4     4      0
                              _fputc
 ---------------------------------------------------------------------------------
 (4) _fputc                                                8     5      3     682
                                              0 COMMON     8     5      3
                              _putch
 ---------------------------------------------------------------------------------
 (5) _putch                                                1     1      0       0
 ---------------------------------------------------------------------------------
 (5) _memcpy                                               7     4      3     328
                                              0 COMMON     7     4      3
 ---------------------------------------------------------------------------------
 (5) _labs                                                 4     0      4     294
                                              0 COMMON     4     0      4
 ---------------------------------------------------------------------------------
 (5) _floorf                                              20    16      4     490
                                             13 BANK0     20    16      4
                            ___fldiv (ARG)
 ---------------------------------------------------------------------------------
 (5) ___fpclassifyf                                       16    12      4     287
                                              0 COMMON    10     6      4
                                              0 BANK0      6     6      0
 ---------------------------------------------------------------------------------
 (5) ___fltol                                             10     6      4     457
                                              0 COMMON    10     6      4
 ---------------------------------------------------------------------------------
 (5) ___flsub                                              8     0      8    2637
                                             26 BANK0      8     0      8
                            ___fladd
                            ___flmul (ARG)
 ---------------------------------------------------------------------------------
 (6) ___fladd                                             20    12      8    2288
                                              0 COMMON    12     4      8
                                              0 BANK0      8     8      0
 ---------------------------------------------------------------------------------
 (5) ___flneg                                              4     0      4     121
                                              0 COMMON     4     0      4
 ---------------------------------------------------------------------------------
 (5) ___flmul                                             26    18      8    3329
                                              0 BANK0     26    18      8
                          __Umul8_16
                           ___xxtofl (ARG)
 ---------------------------------------------------------------------------------
 (6) __Umul8_16                                            9     7      2     799
                                              0 COMMON     9     7      2
 ---------------------------------------------------------------------------------
 (5) ___flge                                              12     4      8     942
                                             26 BANK0     12     4      8
                            ___flmul (ARG)
 ---------------------------------------------------------------------------------
 (5) ___fleq                                              12     4      8     394
                                              0 COMMON    12     4      8
 ---------------------------------------------------------------------------------
 (5) ___fldiv                                             26    18      8    2033
                                              0 COMMON    13     5      8
                                              0 BANK0     13    13      0
 ---------------------------------------------------------------------------------
 (1) ___xxtofl                                            14    10      4     398
                                              0 COMMON    14    10      4
 ---------------------------------------------------------------------------------
 (1) _LCD_String                                           3     1      2     286
                                              3 COMMON     3     1      2
                           _LCD_Data
 ---------------------------------------------------------------------------------
 (2) _LCD_Data                                             3     3      0      44
                                              0 COMMON     3     3      0
 ---------------------------------------------------------------------------------
 (1) _LCD_Init                                             0     0      0      44
                            _LCD_Cmd
 ---------------------------------------------------------------------------------
 (2) _LCD_Cmd                                              3     3      0      44
                                              0 COMMON     3     3      0
 ---------------------------------------------------------------------------------
 (1) _ADC_Read                                             4     2      2      44
                                              0 COMMON     4     2      2
 ---------------------------------------------------------------------------------
 (1) _ADC_Init                                             0     0      0       0
 ---------------------------------------------------------------------------------
 Estimated maximum stack depth 6
 ---------------------------------------------------------------------------------

 Call Graph Graphs:

 _main (ROOT)
   _ADC_Init
   _ADC_Read
   _LCD_Cmd
   _LCD_Init
     _LCD_Cmd
   _LCD_String
     _LCD_Data
   ___fldiv
   ___flmul
     __Umul8_16
     ___xxtofl (ARG)
   ___xxtofl
   _sprintf
     _vfprintf
       _vfpfcnvrt
         _efgtoa
           ___fladd
           ___fldiv
           ___fleq
           ___flge
             ___flmul (ARG)
           ___flmul
           ___flneg
           ___flsub
             ___fladd
             ___flmul (ARG)
           ___fltol
           ___fpclassifyf
           _floorf
             ___fldiv (ARG)
           _labs
           _memcpy
           _pad
             _fputc
               _putch
             _fputs
               _fputc
           _strcpy
         _fputc
         _read_prec_or_width
           ___wmul

 Address spaces:
Name               Size   Autos  Total    Cost      Usage
BITCOMMON            E      0       0       0        0.0%
EEDATA             100      0       0       0        0.0%
NULL                 0      0       0       0        0.0%
CODE                 0      0       0       0        0.0%
COMMON               E      E       E       1      100.0%
BITSFR0              0      0       0       1        0.0%
SFR0                 0      0       0       1        0.0%
BITSFR1              0      0       0       2        0.0%
SFR1                 0      0       0       2        0.0%
STACK                0      0       0       2        0.0%
ABS                  0      0     103       3        0.0%
BITBANK0            50      0       0       4        0.0%
BITSFR3              0      0       0       4        0.0%
SFR3                 0      0       0       4        0.0%
BANK0               50     48      4D       5       96.2%
BITSFR2              0      0       0       5        0.0%
SFR2                 0      0       0       5        0.0%
BITBANK1            50      0       0       6        0.0%
BANK1               50     50      50       7      100.0%
BITBANK3            60      0       0       8        0.0%
BANK3               60      0      58       9       91.7%
BITBANK2            60      0       0      10        0.0%
BANK2               60      0       0      11        0.0%
DATA                 0      0     103      12        0.0%


Microchip Technology PIC Macro Assembler V2.45 build 20230818022343 
Symbol Table                                                                                   Tue Dec 19 00:46:47 2023

              ___fldiv@aexp 002C                ___fldiv@bexp 002B                           pc 0002  
              ___fldiv@sign 0024                          l31 1FDE                          l40 102F  
                        l25 1174                          l44 0034                          l28 11A3  
                        l45 002A                          l37 111A                          fsr 0004  
       ___wmul@multiplicand 0072                 main@Nhietdo 00E6                 ?_LCD_String 0073  
       __Umul8_16@word_mpld 0076                         l141 1060                         l310 11FA  
                       l311 1216                         l143 1078                         l322 13F1  
                       l331 080B                         l500 0A56                         l316 122B  
                       l342 086C                         l327 140A                         l319 1385  
                       l335 0881                         l520 0A42                         l345 0881  
                       l514 09D0                         l442 0AB2                         l604 1FFF  
                       l446 0B35                         l463 0C04                         l455 0CBA  
                       l631 11AD                         l544 0F6F                         l448 0B0C  
                       l473 0C4C                         l538 0FFF                         l722 1145  
                       l467 0C2A                         l635 11DD                         l643 1649  
                       l715 17FF                         l732 1366                         l557 10B3  
                       l485 0CBA                         l582 0057                         l662 0342  
                       l646 07EB                         l559 10C5                         l743 15BF  
                       l584 00EC                         l488 1053                         l672 05E9  
                       l753 1FA4                         l498 08D8                         l738 1506  
                       l595 00B6                         l739 15C7                         l771 1281  
                       l596 00C2                         l782 0004                         l759 109E  
                       l695 12D9                         l779 10EF                         l788 1FBF  
                       _pad 11A4                         fsr0 0004                         indf 0000  
              ___flmul@aexp 0032                ___flmul@bexp 0033                ___flmul@sign 002D  
              ___flmul@temp 0038                ___flmul@prod 0034                 LCD_Cmd@data 0072  
           __end_of_LCD_Cmd 1175                ___fltol@exp1 0079                        l2100 0A90  
                      l2110 0AA7                        l2102 0A94                        l2200 0BE0  
                      l2120 0AC0                        l2112 0AA8                        l2104 0A95  
                      l3000 1708                        l2210 0C11                        l2202 0BE2  
                      l2130 0ACA                        l2122 0AC2                        l2106 0A9A  
                      l2114 0AAA                        l3010 173E                        l3002 1718  
                      l3100 117E                        l2220 0C2E                        l2204 0BE7  
                      l2140 0AD4                        l2132 0ACC                        l2124 0AC4  
                      l2116 0AB8                        l2108 0A9F                        l2060 1231  
                      l2300 1067                        l3012 1743                        l3020 175B  
                      l3004 171E                        l3110 1197                        l3102 1186  
                      l2310 11F2                        l2222 0C31                        l2214 0C1A  
                      l2206 0BF6                        l2230 0C3E                        l2142 0AD6  
                      l2134 0ACE                        l2126 0AC6                        l2118 0ABC  
                      l2150 0ADE                        l2062 1236                        l2302 106E  
                      l3030 17A8                        l3022 1768                        l3014 1746  
                      l3006 172C                        l3112 1198                        l3104 1189  
                      l3200 00BA                        l2400 0890                        l2312 120E  
                      l2320 1367                        l2240 0C51                        l2232 0C3F  
                      l2224 0C33                        l2216 0C25                        l2208 0C0C  
                      l2160 0B1B                        l2152 0ADF                        l2144 0AD8  
                      l2136 0AD0                        l2128 0AC8                        l2080 0A65  
                      l2072 0A57                        l2064 123D                        l2304 1074  
                      l3032 17B2                        l3024 1780                        l3040 17DC  
                      l3008 1735                        l3120 1133                        l3114 11A0  
                      l3106 1195                        l3130 10F2                        l3210 00E4  
                      l3202 00C4                        l2402 0895                        l2410 08A5  
                      l2314 1228                        l2330 13C9                        l2322 137D  
                      l2242 0C56                        l2250 0C8C                        l2234 0C43  
                      l2226 0C38                        l2218 0C29                        l2170 0B39  
                      l2162 0B1F                        l2154 0AF6                        l2146 0ADA  
                      l2138 0AD2                        l2082 0A6A                        l2090 0A7A  
                      l2074 0A5A                        l2066 124C                        l2058 122C  
                      l3018 1748                        l3122 1141                        l3140 000C  
                      l3108 1196                        l3132 1103                        l3204 00DA  
                      l2420 08BB                        l2412 08AD                        l2404 089A  
                      l2316 122A                        l2308 11DE                        l2332 13CD  
                      l2324 1399                        l2340 0801                        l2260 0CA4  
                      l2252 0C91                        l2244 0C64                        l2236 0C49  
                      l2228 0C3A                        l2180 0B62                        l2172 0B3E  
                      l2164 0B20                        l2156 0B10                        l2148 0ADC  
                      l2092 0A82                        l2084 0A6F                        l2076 0A60  
                      l2068 126A                        l3028 1798                        l3044 17E6  
                      l3116 111E                        l3220 1418                        l3150 002E  
                      l3070 114C                        l3126 1FC0                        l3134 1107  
                      l3206 00DF                        l2510 0A05                        l2502 09D5  
                      l2422 08C0                        l2430 08D0                        l2414 08B2  
                      l2406 08A2                        l2334 1407                        l2326 13A1  
                      l2342 0809                        l2270 0CB9                        l2262 0CA8  
                      l2254 0C96                        l2246 0C68                        l2190 0B76  
                      l2182 0B66                        l2166 0B2B                        l2158 0B19  
                      l2094 0A85                        l2086 0A77                        l2078 0A64  
                      l2350 0815                        l3038 17C9                        l3118 1125  
                      l3230 1494                        l3222 1424                        l3214 140B  
                      l3136 1027                        l3144 000F                        l3080 115A  
                      l3072 114D                        l3128 10F0                        l3208 00E3  
                      l2520 0A39                        l2504 09DA                        l2512 0A0B  
                      l2432 08E0                        l2440 08F9                        l2424 08C5  
                      l2416 08B6                        l2408 08A3                        l2336 1409  
                      l2328 13A5                        l2280 10BC                        l2272 10A0  
                      l2600 0DED                        l2344 080B                        l2264 0CAA  
                      l2256 0C9E                        l2248 0C88                        l2192 0B81  
                      l2184 0B6F                        l2176 0B47                        l2168 0B2F  
                      l2096 0A8B                        l2088 0A78                        l2360 083A  
                      l3160 1FEA                        l3232 14A6                        l3224 1466  
                      l3216 140E                        l3146 0022                        l3138 0006  
                      l3090 1171                        l3082 1166                        l3074 114E  
                      l3170 003F                        l2530 0A50                        l2522 0A41  
                      l2514 0A18                        l2506 09E8                        l2450 0921  
                      l2442 08FE                        l2434 08EC                        l2426 08CD  
                      l2418 08BA                        l2282 10C1                        l2274 10A2  
                      l2610 0E69                        l2602 0E0A                        l2266 0CAE  
                      l2258 0CA3                        l2186 0B71                        l2178 0B5E  
                      l2194 0B86                        l2098 0A8C                        l2370 0848  
                      l2362 083C                        l2354 081E                        l2290 10DA  
                      l3330 17D7                        l3162 1FF6                        l3154 1FE2  
                      l3234 14AC                        l3226 1485                        l3218 1413  
                      l3148 0027                        l3084 1167                        l3076 114F  
                      l3068 1147                        l3092 1176                        l3180 006B  
                      l3172 004F                        l2524 0A46                        l2516 0A26  
                      l2508 09EC                        l2460 094A                        l2452 0929  
                      l2436 08F0                        l2428 08CE                        l2276 10A9  
                      l2620 0F1B                        l2612 0E94                        l2604 0E18  
                      l2540 0CC0                        l2268 0CB5                        l2196 0B9C  
                      l2188 0B75                        l2380 0861                        l2372 0851  
                      l2364 0840                        l2356 0831                        l2348 080C  
                      l2700 1330                        l2292 10E2                        l3156 1FE6  
                      l3228 148B                        l3086 1168                        l3078 1157  
                      l3094 117B                        l3190 0091                        l3182 006F  
                      l3174 005F                        l3166 0036                        l2526 0A4A  
                      l2518 0A35                        l2470 096B                        l2462 094E  
                      l2454 0931                        l2446 0907                        l2278 10AD  
                      l2630 0F40                        l2622 0F24                        l2614 0EA2  
                      l2606 0E35                        l2550 0CD3                        l2542 0CC4  
                      l2198 0BDC                        l2382 0871                        l2374 085A  
                      l2358 0832                        l2702 1335                        l2286 10C9  
                      l2294 1054                        l3326 1750                        l3158 1FE8  
                      l3088 1169                        l3096 117C                        l3192 009A  
                      l3184 0078                        l3168 003B                        l2528 0A4C  
                      l2480 0993                        l2472 097F                        l2464 094F  
                      l2456 0933                        l2448 0919                        l2392 0882  
                      l2640 0F58                        l2632 0F49                        l2624 0F32  
                      l2616 0ECD                        l2608 0E4C                        l2560 0CEE  
                      l2552 0CDB                        l2544 0CC8                        l2384 0876  
                      l2712 1362                        l2720 1F90                        l2288 10CC  
                      l2800 1686                        l2296 1056                        l3328 17A0  
                      l3098 117D                        l3194 00A1                        l3186 007F  
                      l3178 0068                        l2482 099C                        l2490 09B0  
                      l2458 0938                        l2466 0958                        l2474 0983  
                      l2394 0887                        l2650 0F87                        l2642 0F6C  
                      l2626 0F3B                        l2634 0F4F                        l2618 0EF3  
                      l2570 0D05                        l2562 0CF2                        l2554 0CDD  
                      l2546 0CC9                        l2538 0CBB                        l2386 1030  
                      l2706 133A                        l2730 14D9                        l2722 1F94  
                      l2810 16C3                        l2298 105A                        l3196 00AC  
                      l3188 0083                        l2492 09B4                        l2484 09A0  
                      l2476 0989                        l2468 096A                        l2396 088B  
                      l2660 0FC2                        l2652 0F8B                        l2636 0F53  
                      l2628 0F3F                        l2572 0D07                        l2564 0CF3  
                      l2556 0CE5                        l2548 0CCE                        l2388 1034  
                      l2708 1340                        l2732 14F8                        l2724 1F95  
                      l2716 1FA6                        l2900 05DD                        l2820 00F7  
                      l2812 16CC                        l2804 1695                        l3198 00B0  
                      l2494 09B5                        l2486 09A1                        l2478 0991  
                      l2398 088F                        l2670 0FED                        l2662 0FD1  
                      l2654 0FA4                        l2646 0F74                        l2638 0F54  
                      l2590 0D74                        l2582 0D22                        l2574 0D0F  
                      l2566 0CF8                        l2558 0CEA                        l2750 1595  
                      l2742 153B                        l2734 1505                        l2718 1FA8  
                      l2910 05FD                        l2902 05E3                        l2830 0162  
                      l2822 00F9                        l2814 16D4                        l2806 16AC  
                      l2496 09B9                        l2488 09AA                        l2672 0FEE  
                      l2664 0FDB                        l2648 0F79                        l2656 0FAA  
                      l2592 0D9E                        l2584 0D30                        l2576 0D14  
                      l2568 0CFD                        l2752 159E                        l2744 1554  
                      l2736 150C                        l2728 14B9                        l2760 107F  
                      l2680 11A7                        l2920 067A                        l2912 0655  
                      l2904 05F7                        l2840 0285                        l2832 01C0  
                      l2808 16B3                        l2498 09CD                        l2666 0FDD  
                      l2674 0FF3                        l2658 0FB7                        l2594 0DBA  
                      l2586 0D3D                        l2578 0D19                        l2754 15B7  
                      l2746 156B                        l2738 1526                        l2762 1084  
                      l2690 11D3                        l2682 11AB                        l2930 0695  
                      l2922 0680                        l2914 066B                        l2906 05F8  
                      l2850 032B                        l2842 028B                        l2834 01F9  
                      l2826 0113                        l2818 00ED                        l2770 15CC  
                      l2676 0FF7                        l2668 0FE9                        l2596 0DD6  
                      l2588 0D58                        l2692 12DA                        l2748 157C  
                      l2764 1088                        l2684 11B0                        l2940 06B4  
                      l2932 069B                        l2924 0686                        l2916 0671  
                      l2908 05FA                        l2860 0356                        l2852 0331  
                      l2836 0259                        l2828 0123                        l2780 162A  
                      l2772 15E4                        l2598 0DDF                        l2694 12FA  
                      l2766 1090                        l2758 107A                        l2686 11BD  
                      l2950 0757                        l2942 06BA                        l2934 06A1  
                      l2926 068C                        l2918 0676                        l2870 036E  
                      l2862 035E                        l2854 033C                        l2838 0264  
                      l2846 02EA                        l2790 164B                        l2782 1636  
                      l2774 160B                        ?_pad 007B                        l2696 1311  
                      l2688 11C5                        l2960 078D                        l2944 06C0  
                      l2928 068F                        l2936 06A7                        l2952 075D  
                      l2880 047D                        l2872 0376                        l2864 0360  
                      l2856 034C                        l2848 0323                        l2792 165E  
                      l2784 163B                        l2776 160F                        l2768 15CB  
                      l2698 1317                        l2970 07D8                        l2962 07A8  
                      l2954 0773                        l2946 0732                        l2938 06AD  
                      l2890 051F                        l2882 04BC                        l2874 037F  
                      l2866 0366                        l2858 0352                        l2794 1665  
                      l2786 1640                        l2778 1626                        l2972 07DE  
                      l2964 07B2                        l2956 0782                        l2948 0751  
                      l2892 0527                        l2884 04F3                        l2876 0461  
                      l2868 036C                        l2796 1675                        l2788 1645  
                      l2980 1294                        l2966 07C7                        l2958 0788  
                      l2894 0548                        l2886 04FE                        l2878 0467  
                      l2798 167E                        l2982 12A8                        l2968 07CC  
                      l2896 0596                        l2888 0519                        l2984 12BD  
                      l2976 1283                        l2992 16E4                        l2898 059E  
                      l2986 12C4                        l2978 1285                        l2994 16F5  
                      l2988 12D5                        l2996 16FB                        l2998 1704  
                      STR_1 1010                        STR_2 1019                        STR_3 101F  
                      STR_6 1023                        u3000 1407                        u3001 1406  
                      u3010 0809                        u3011 0808                        u3100 0871  
                      u3020 0815                        u3005 1403                        u3101 0870  
                      u3021 0814                        u3110 0876                        u3030 082C  
                      u3111 0875                        u3200 0938                        u3120 088F  
                      u2400 0A8B                        u3040 0840                        u4000 1595  
                      u3201 0937                        u3121 088E                        u2401 0A8A  
                      u3041 083F                        u4001 1594                        u3130 0895  
                      u2410 0A94                        u3050 0847                        u4010 15AC  
                      u2330 1231                        u3131 0894                        u2411 0A93  
                      u3051 0846                        u3035 0827                        u2331 1230  
                      u3300 09A0                        u3140 089A                        u2500 0B1F  
                      u2420 0A9A                        u4020 15B7                        u2340 1236  
                      u4100 16B3                        u3301 099F                        u3141 0899  
                      u2501 0B1E                        u2421 0A99                        u4021 15B6  
                      u2341 1235                        u4101 16B2                        u3230 094E  
                      u3150 08BA                        u2430 0A9F                        u3070 0859  
                      u4030 109E                        u2350 124C                        u4110 0112  
                      u3231 094D                        u3215 093A                        u3151 08B9  
                      u2431 0A9E                        u3071 0858                        u4015 15A7  
                      u4031 109D                        u2351 124B                        u4111 0111  
                      u3400 0A35                        u3320 09B4                        u3160 08C0  
                      u2600 0B9C                        u2520 0B35                        u2440 0AB8  
                      u3080 0860                        u2360 126A                        u4200 0331  
                      u4040 160B                        u3401 0A34                        u3321 09B3  
                      u3225 0943                        u3161 08BF                        u2601 0B9B  
                      u2521 0B34                        u2441 0AB7                        u3081 085F  
                      u3065 0849                        u2361 1269                        u4201 0330  
                      u4121 0185                        u4041 160A                        u3410 0A4A  
                      u3330 09B9                        u3250 096A                        u3170 08C5  
                      u2530 0B39                        u2450 0ABC                        u2370 0A64  
                      u4210 0352                        u4130 01C0                        u4122 0188  
                      u4050 163B                        u3411 0A49                        u3331 09B8  
                      u3315 09A3                        u3251 0969                        u3171 08C4  
                      u2611 0BB5                        u2603 0B98                        u2531 0B38  
                      u2515 0B24                        u2451 0ABB                        u2371 0A63  
                      u4211 0351                        u4131 01BF                        u4123 018F  
                      u4051 163A                        u3340 09CD                        u3260 097F  
                      u3180 08E0                        u3420 0CC8                        u2700 0C3E  
                      u2620 0BC9                        u2612 0BB6                        u2540 0B3E  
                      u2460 0AF6                        u2380 0A6A                        u4300 0655  
                      u4220 0356                        u4140 01F9                        u4124 0192  
                      u4060 1640                        u3405 0A31                        u3341 09CC  
                      u3245 0951                        u3181 08DF                        u3501 0D66  
                      u3421 0CC7                        u2701 0C3D                        u2621 0BCA  
                      u2613 0BBB                        u2541 0B3D                        u2461 0AF5  
                      u2381 0A69                        u2365 1266                        u4301 0654  
                      u4221 0355                        u4141 01F8                        u4133 01BC  
                      u4125 0199                        u4061 163F                        u3350 09D4  
                      u3270 0989                        u3190 08FE                        u3502 0D6D  
                      u3430 0CCE                        u2710 0C43                        u2630 0BE7  
                      u2622 0BCF                        u2614 0BBC                        u2470 0AFF  
                      u2390 0A6F                        u4310 0676                        u4230 0366  
                      u4126 019C                        u4070 165E                        u3351 09D3  
                      u3271 0988                        u3255 0966                        u3191 08FD  
                      u3511 0D82                        u3503 0D74                        u3431 0CCD  
                      u2711 0C42                        u2631 0BE6                        u2623 0BD0  
                      u2615 0BC1                        u2551 0B50                        u2471 0AFD  
                      u2391 0A6E                        u3095 0863                        u4311 0675  
                      u4231 0365                        u4151 021E                        u4071 165D  
                      u3360 09DA                        u3280 0991                        u3512 0D89  
                      u3440 0CD3                        u2800 0CA3                        u2720 0C49  
                      u2640 0C0C                        u2616 0BC2                        u2560 0B62  
                      u2552 0B57                        u2480 0B00                        u4320 067A  
                      u4240 047D                        u4160 0259                        u4152 0221  
                      u4080 1665                        u4400 12D5                        u3361 09D9  
                      u3281 0990                        u3265 0972                        u3601 0EB1  
                      u3521 0DAC                        u3513 0D90                        u3441 0CD2  
                      u2801 0CA2                        u2721 0C48                        u2641 0C0B  
                      u2561 0B61                        u2553 0B5E                        u2465 0AF2  
                      u4321 0679                        u4305 0651                        u4241 047C  
                      u4161 0258                        u4153 0228                        u4081 1664  
                      u4401 12D4                        u3370 09EC                        u3266 0973  
                      u3610 0ED9                        u3602 0EB8                        u3522 0DB3  
                      u3450 0CF2                        u2810 0CA8                        u2730 0C50  
                      u2650 0C11                        u2570 0B66                        u2490 0B10  
                      u4330 06AD                        u4250 04F3                        u4154 022B  
                      u4090 16AC                        u4410 16F5                        u3371 09EB  
                      u3267 0978                        u3603 0EBF                        u3531 0DC8  
                      u3523 0DBA                        u3451 0CF1                        u2811 0CA7  
                      u2731 0C4F                        u2651 0C10                        u2571 0B65  
                      u2491 0B0F                        u4331 06AC                        u4251 04F2  
                      u4171 02AE                        u4163 0255                        u4155 0232  
                      u4091 16A9                        u4411 16F4                        u4500 002E  
                      u3380 09FB                        u3268 0979                        u3700 0F58  
                      u3532 0DCF                        u3460 0CF8                        u2820 0CB9  
                      u2740 0C56                        u2580 0B75                        u4340 0773  
                      u4260 0519                        u4180 02E9                        u4172 02B1  
                      u4156 0235                        u2900 1074                        u4420 1718  
                      u4501 002D                        u3269 097E                        u3701 0F57  
                      u3621 0EE5                        u3533 0DD6                        u3461 0CF7  
                      u2821 0CB8                        u2741 0C55                        u2581 0B74  
                      u4341 0772                        u4261 0518                        u4245 0479  
                      u4181 02E8                        u4173 02B8                        u2901 1073  
                      u4421 1717                        u4510 003B                        u3390 0A18  
                      u2910 11F2                        u2830 10AD                        u3710 0F6C  
                      u3630 0F01                        u3622 0EEC                        u3470 0CFD  
                      u2750 0C68                        u2670 0C29                        u4350 0782  
                      u4270 051F                        u4190 0323                        u4174 02BB  
                      u4430 1767                        u4511 003A                        u3391 0A17  
                      u3295 0995                        u2911 11F1                        u2831 10AC  
                      u3711 0F6B                        u3623 0EF3                        u3615 0ED4  
                      u3551 0DFC                        u3471 0CFC                        u2751 0C67  
                      u2671 0C28                        u4351 0781                        u4271 051E  
                      u4191 0322                        u4183 02E5                        u4175 02C2  
                      u4431 1766                        u4600 00B6                        u4520 003F  
                      u2920 120E                        u3720 0F73                        u3552 0E03  
                      u3480 0D14                        u2760 0C79                        u2680 0C2E  
                      u3800 11D3                        u4360 07B8                        u4280 0596  
                      u4176 02C5                        u4601 00B5                        u4521 003E  
                      u3385 09F6                        u2921 120D                        u3721 0F72  
                      u3641 0F0D                        u3561 0E27                        u3553 0E0A  
                      u3545 0DD8                        u3481 0D13                        u2681 0C2D  
                      u2665 0C1E                        u3801 11D2                        u4361 07B6  
                      u4345 076F                        u4281 0595                        u4610 00BA  
                      u4530 005F                        u2930 1228                        u2850 10C1  
                      u3730 0F79                        u3642 0F14                        u3562 0E2E  
                      u3490 0D19                        u2770 0C88                        u2690 0C38  
                      u3810 1308                        u4370 07B9                        u4290 05E3  
                      u4611 00B9                        u4531 005E                        u3395 0A14  
                      u2931 1227                        u2851 10C0                        u3731 0F78  
                      u3643 0F1B                        u3635 0EFC                        u3563 0E35  
                      u3491 0D18                        u2771 0C87                        u2691 0C37  
                      u2595 0B7A                        u4355 077E                        u4291 05E2  
                      u4620 00CF                        u2940 137D                        u3740 0F8B  
                      u2780 0C91                        u3820 1317                        u3900 1F94  
                      u2860 10EF                        u4380 07CC                        u4460 1141  
                      u4445 115D                        u2941 137C                        u2845 10B4  
                      u3741 0F8A                        u3581 0E5B                        u2781 0C90  
                      u2765 0C74                        u3821 1316                        u3901 1F93  
                      u2861 10EE                        u3805 11CF                        u4381 07CB  
                      u4461 1140                        u4470 111A                        u4630 00DF  
                      u4550 007E                        u2950 1399                        u3750 0F9A  
                      u3670 0F3F                        u3582 0E62                        u2790 0C96  
                      u3830 1325                        u3910 14E7                        u2870 105A  
                      u4390 1294                        u4455 118C                        u4471 1119  
                      u4631 00DE                        u4551 007D                        u2935 1224  
                      u2951 1398                        u3671 0F3E                        u3655 0F1D  
                      u3591 0E86                        u3583 0E69                        u3575 0E37  
                      u2791 0C95                        u3815 1303                        u2871 1059  
                      u4391 1293                        u4480 000C                        u4640 00E3  
                      u2960 13A5                        u3760 0FB7                        u3592 0E8D  
                      u3840 1330                        u3920 1505                        u4481 000B  
                      u4641 00E2                        u4625 00CA                        u4545 0070  
                      u2961 13A4                        u3761 0FB6                        u3665 0F34  
                      u3593 0E94                        u3841 132F                        u3921 1504  
                      u4570 00A0                        u3770 0FD1                        u3690 0F53  
                      u3850 1340                        u3930 150C                        u4571 009F  
                      u2971 13B4                        u3771 0FD0                        u3755 0F95  
                      u3691 0F52                        u3851 133F                        u3835 1320  
                      u3931 150B                        u3915 14E2                        u2980 13CD  
                      u2972 13B5                        u3780 0FED                        u3860 134E  
                      u3940 151C                        u4565 0092                        u2981 13CC  
                      u2973 13BA                        u3781 0FEC                        u3765 0FB3  
                      u3685 0F42                        u3925 1501                        u2885 1061  
                      u4590 00B0                        u2974 13BB                        u3870 135A  
                      u3950 153A                        u3790 11AB                        u4495 0018  
                      u4591 00AF                        u2991 13DC                        u2975 13C0  
                      u3775 0FCD                        u3871 1358                        u3951 1539  
                      u3791 11AA                        u2895 1068                        u2992 13DD  
                      u2976 13C1                        u3880 135B                        u3960 1549  
                      u4657 1182                        u4585 00A5                        u2993 13E2  
                      u3865 1349                        u3945 1517                        u2994 13E3  
                      u3970 1554                        u3890 1FBF                        u4667 119C  
                      u2995 13E8                        u3971 1553                        u3891 1FBE  
                      u2996 13E9                        u4677 1153                        u3981 155D  
                      u3965 1544                        u3990 158A                        u3982 1564  
                      u4687 116D                        u3983 156B                        u4697 0024  
                      u3995 1585                        _dbuf 0198                        _labs 1F90  
                      _main 140B                        _prec 006A                        pad@i 0025  
                      pad@p 007C                        btemp 007E            __end_of_ADC_Init 1030  
          __end_of_ADC_Read 0035               ___fpclassifyf 12DA                        start 0000  
           ___fldiv@new_exp 0025                       ??_pad 0024            __end_of_LCD_Data 11A4  
          __end_of_LCD_Init 1FDF                LCD_Data@data 0072               ___fltol@sign1 0078  
                     ?_labs 0070             __end_of___fladd 0CBB                       ?_main 0070  
           __end_of___fldiv 0A57             __end_of___flneg 080C             __end_of___flmul 1000  
           __end_of___flsub 1054             __end_of___fltol 0882                vfpfcnvrt@fmt 00CD  
                     _PORTB 0006                       _TRISB 0086                 LCD_String@i 0075  
                     _flags 006C         read_prec_or_width@c 0078         read_prec_or_width@n 0079  
                     _fputc 122C                       _fputs 10C6                       labs@a 0070  
                     pad@fp 0027                       _width 0068                       _putch 0004  
                     pclath 000A                       status 0003                       wtemp0 007E  
           __end_of_sprintf 2000              ?___fpclassifyf 0070             __initialization 07EC  
              __end_of_labs 1FA5                __end_of_main 14B9                      ??_labs 0074  
                    ??_main 007E                   ??_LCD_Cmd 0070  __end_of_read_prec_or_width 12DA  
                    _ADCON0 001F                      _ADCON1 009F                      ?_fputc 0070  
                    ?_fputs 0078                      _ADRESH 001E                      _ADRESL 009E  
                    ?_putch 0070            __end_of___xxtofl 00ED                vfprintf@cfmt 0059  
                    ___flge 1367                      ___fleq 11DE                   ??___fladd 0020  
                    ___wmul 1054                   ??___fldiv 0078                   ??___flneg 0074  
                 ??___flmul 0028                   ??___flsub 007E                   ??___fltol 0074  
                    _efgtoa 15C8                      _floorf 14B9                      _memcpy 1079  
      read_prec_or_width@ap 0076                      pad@buf 007B                      _strcpy 1FA5  
                    fputc@c 0070                      fputs@c 0020                      fputs@i 0021  
                    fputs@s 0023             ___fpclassifyf@e 0020                   ?_ADC_Init 0070  
           ___fpclassifyf@u 0022                   ?_ADC_Read 0070             ___fpclassifyf@x 0070  
                    putch@c 0070            __end_of_vfprintf 1146                   ??_sprintf 005A  
                ___flge@ff1 003A                  ___flge@ff2 003E             ??___fpclassifyf 0074  
              ___xxtofl@arg 007A                ___xxtofl@exp 0079                ___xxtofl@val 0070  
                ___fleq@ff1 0070                  ___fleq@ff2 0074                   ?_LCD_Data 0070  
   __end_of__initialization 07FC                   ?_LCD_Init 0070                  ___flneg@f1 0070  
                ___fltol@f1 0070              __pcstackCOMMON 0070               __end_of_fputc 1282  
             __end_of_fputs 10F0               __end_of_putch 0005                ??_LCD_String 0075  
                ??_ADC_Init 0070                  ??_ADC_Read 0072                     ??_fputc 0073  
                   ??_fputs 0079                     ??_putch 0070                  __pbssBANK0 0068  
                __pbssBANK3 0190                  ??_LCD_Data 0070                  ??_LCD_Init 0073  
        __end_of_LCD_String 111B           __end_of__Umul8_16 10C6                  _efgtoa$712 00A6  
                __pmaintext 140B                     ?___flge 003A                     ?___fleq 0070  
                   ?___wmul 0070                     ?_efgtoa 0046                     ?_floorf 002D  
                   ?_memcpy 0070                     ?_strcpy 0070                     _LCD_Cmd 1146  
                 ?___xxtofl 0070                     _GO_DONE 00FA                  __stringtab 1000  
             LCD_String@str 0073                     ___fladd 0A57                     ___fldiv 0882  
                   ___flneg 0801                     ___flmul 0CBB                     ___flsub 1030  
                   ___fltol 080C                   ?_vfprintf 00CF                     __ptext1 1FDF  
                   __ptext2 111B                     __ptext3 16E1                     __ptext4 1282  
                   __ptext5 1054                     __ptext6 15C8                     __ptext7 1FA5  
                   __ptext8 11A4                     __ptext9 10C6       read_prec_or_width@fmt 007B  
                ??___xxtofl 0074                     efgtoa@c 004A                     efgtoa@d 00AB  
                   efgtoa@e 00B0                     efgtoa@f 0046                     efgtoa@g 00C5  
                   efgtoa@h 00BA                     efgtoa@i 00B8                     efgtoa@l 00BE  
                   efgtoa@m 00AD                     efgtoa@n 00C3                     efgtoa@p 00A2  
                   efgtoa@t 00A4                     efgtoa@u 00C9                     efgtoa@w 00B2  
                   main@ADC 00EE                     main@Vol 00EA                     _sprintf 1FDF  
                   clrloop0 1F89        end_of_initialization 07FC                     floorf@e 003B  
                   floorf@m 0037                     floorf@u 003D                     floorf@x 002D  
                   memcpy@d 0075                     memcpy@n 0071                     memcpy@s 0076  
                   fputc@fp 0072                     fputs@fp 0078          _read_prec_or_width 1282  
         __end_of_vfpfcnvrt 1800                  efgtoa@mode 00A9                  efgtoa@sign 00C2  
       ?_read_prec_or_width 0076                     psplit$0 10002B            vfpfcnvrt@convarg 0051  
                ??_vfprintf 007E                     strcpy@d 0071                   _PORTBbits 0006  
               ___fladd@grs 007B               ___xxtofl@sign 0078        ??_read_prec_or_width 0078  
               ___fldiv@grs 0027                 ___fldiv@rem 0020                 ___flmul@grs 002E  
            __end_of___flge 140B              __end_of___fleq 122C                 vfpfcnvrt@ap 00CE  
               vfpfcnvrt@cp 0057                 vfpfcnvrt@fp 0055              __end_of___wmul 1079  
            __end_of_efgtoa 07EC              __end_of_floorf 15C8              __end_of_memcpy 109F  
                floorf@F521 0190              __end_of_strcpy 1FC0         start_initialization 07EC  
               __end_of_pad 11DE           pnum$text6_split_1 002B       __end_of___fpclassifyf 1367  
               vfprintf@fmt 00CF                    ??___flge 0042                    ??___fleq 0078  
                  ??___wmul 0074                    ??_efgtoa 004B                   __Umul8_16 109F  
                  ??_floorf 0031                    ??_memcpy 0073                    ??_strcpy 0071  
                 ___fladd@a 0074                   ___fladd@b 0070                    ?_LCD_Cmd 0070  
                 ___fldiv@a 0070                   ___fldiv@b 0074                   ___flmul@a 0024  
                 ___flmul@b 0020                   ___flsub@a 003A                   ___flsub@b 003E  
                 ___latbits 0002               __pcstackBANK0 0020               __pcstackBANK1 00A0  
                  ?___fladd 0070                    ?___fldiv 0070                    ?___flneg 0070  
                  ?___flmul 0020                    ?___flsub 003A                    ?___fltol 0070  
                ?__Umul8_16 0070                   __pstrings 1000                    _ADC_Init 1027  
                  _ADC_Read 0005                 ADC_Read@ANC 0073                    ?_sprintf 00D1  
                  _LCD_Data 1175                    _LCD_Init 1FC0              ___wmul@product 0074  
                 clear_ram0 1F88                   _vfpfcnvrt 16E1                  _ADCON0bits 001F  
               __stringbase 100F           ___wmul@multiplier 0070                  vfpfcnvrt@c 0056  
                 memcpy@tmp 0073                  vfprintf@ap 00D0                  vfprintf@fp 0058  
               ??__Umul8_16 0072                  ?_vfpfcnvrt 00CD          __end_of__stringtab 1010  
        ___fpclassifyf@F465 0194                  sprintf@fmt 00D1                    ___xxtofl 0035  
                  __ptext10 122C                    __ptext11 0004                    __ptext20 0CBB  
                  __ptext12 1079                    __ptext21 109F                    __ptext13 1F90  
                  __ptext30 0005                    __ptext22 1367                    __ptext14 14B9  
                  __ptext31 1027                    __ptext23 11DE                    __ptext15 12DA  
                  __ptext24 0882                    __ptext16 080C                    __ptext25 0035  
                  __ptext17 1030                    __ptext26 10F0                    __ptext18 0A57  
                  __ptext27 1175                    __ptext19 0801                    __ptext28 1FC0  
                  __ptext29 1146                  strcpy@dest 0072                   pnum$text6 0010  
                  efgtoa@fp 00AF                    efgtoa@ne 00A0                    efgtoa@pp 00A8  
                  efgtoa@ou 00B4                    _vfprintf 111B                    main@Temp 00D6  
                _LCD_String 10F0                    memcpy@d1 0074                    memcpy@s1 0070  
                 sprintf@ap 005C                   strcpy@src 0070                   stringcode 100A  
               efgtoa@nmode 00AA                 ??_vfpfcnvrt 004F      __Umul8_16@multiplicand 0070  
                  sprintf@f 005D                    sprintf@s 005B                    stringdir 100A  
                  stringtab 1000               ___fladd@signs 0078                ___fladd@aexp 0079  
              ___fladd@bexp 007A        __Umul8_16@multiplier 0078           __Umul8_16@product 0074  
